	.file	""
	.data
	.globl	_camlHector__Int.data_begin
_camlHector__Int.data_begin:
	.text
	.globl	_camlHector__Int.code_begin
_camlHector__Int.code_begin:
	nop
	.align	3
	.data
	.align	3
	.data
	.align	3
	.quad	4087
	.globl	_camlHector__Int.91
_camlHector__Int.91:
	.quad	_caml_curry2
	.quad	144115188075855879
	.quad	_camlHector__Int.unsafe_initialize_int_array_372
	.data
	.align	3
	.quad	4087
	.globl	_camlHector__Int.90
_camlHector__Int.90:
	.quad	_caml_curry2
	.quad	144115188075855879
	.quad	_camlHector__Int.make_492
	.data
	.align	3
	.quad	4087
	.globl	_camlHector__Int.89
_camlHector__Int.89:
	.quad	_caml_curry2
	.quad	144115188075855879
	.quad	_camlHector__Int.init_598
	.data
	.align	3
	.quad	4087
	.globl	_camlHector__Int.88
_camlHector__Int.88:
	.quad	_caml_curry3
	.quad	216172782113783815
	.quad	_camlHector__Int.violation_605
	.data
	.align	3
	.quad	4087
	.globl	_camlHector__Int.87
_camlHector__Int.87:
	.quad	_caml_curry3
	.quad	216172782113783815
	.quad	_camlHector__Int.validate_646
	.data
	.align	3
	.quad	4087
	.globl	_camlHector__Int.86
_camlHector__Int.86:
	.quad	_caml_curry3
	.quad	216172782113783815
	.quad	_camlHector__Int.sub_651
	.data
	.align	3
	.quad	4087
	.globl	_camlHector__Int.85
_camlHector__Int.85:
	.quad	_caml_curry5
	.quad	360287970189639687
	.quad	_camlHector__Int.blit_658
	.data
	.align	3
	.quad	3063
	.globl	_camlHector__Int.84
_camlHector__Int.84:
	.quad	_camlHector__Int.check_666
	.quad	72057594037927941
	.data
	.align	3
	.quad	3063
	.globl	_camlHector__Int.83
_camlHector__Int.83:
	.quad	_camlHector__Int.fail_673
	.quad	72057594037927941
	.data
	.align	3
	.quad	3063
	.globl	_camlHector__Int.82
_camlHector__Int.82:
	.quad	_camlHector__Int.capacity_failure_676
	.quad	72057594037927941
	.data
	.align	3
	.quad	3063
	.globl	_camlHector__Int.81
_camlHector__Int.81:
	.quad	_camlHector__Int.length_failure_679
	.quad	72057594037927941
	.data
	.align	3
	.quad	4087
	.globl	_camlHector__Int.80
_camlHector__Int.80:
	.quad	_caml_curry2
	.quad	144115188075855879
	.quad	_camlHector__Int.index_failure_682
	.data
	.align	3
	.quad	4087
	.globl	_camlHector__Int.79
_camlHector__Int.79:
	.quad	_caml_curry2
	.quad	144115188075855879
	.quad	_camlHector__Int.violation_686
	.data
	.align	3
	.quad	4087
	.globl	_camlHector__Int.78
_camlHector__Int.78:
	.quad	_caml_curry2
	.quad	144115188075855879
	.quad	_camlHector__Int.validate_690
	.data
	.align	3
	.quad	3063
	.globl	_camlHector__Int.77
_camlHector__Int.77:
	.quad	_camlHector__Int.create_694
	.quad	72057594037927941
	.data
	.align	3
	.quad	4087
	.globl	_camlHector__Int.76
_camlHector__Int.76:
	.quad	_caml_curry2
	.quad	144115188075855879
	.quad	_camlHector__Int.init_700
	.data
	.align	3
	.quad	3063
	.globl	_camlHector__Int.75
_camlHector__Int.75:
	.quad	_camlHector__Int.copy_707
	.quad	72057594037927941
	.data
	.align	3
	.quad	3063
	.globl	_camlHector__Int.74
_camlHector__Int.74:
	.quad	_camlHector__Int.length_714
	.quad	72057594037927941
	.data
	.align	3
	.quad	3063
	.globl	_camlHector__Int.73
_camlHector__Int.73:
	.quad	_camlHector__Int.is_empty_717
	.quad	72057594037927941
	.data
	.align	3
	.quad	3063
	.globl	_camlHector__Int.72
_camlHector__Int.72:
	.quad	_camlHector__Int.elements_720
	.quad	72057594037927941
	.data
	.align	3
	.quad	4087
	.globl	_camlHector__Int.71
_camlHector__Int.71:
	.quad	_caml_curry2
	.quad	144115188075855879
	.quad	_camlHector__Int.unsafe_get_725
	.data
	.align	3
	.quad	4087
	.globl	_camlHector__Int.70
_camlHector__Int.70:
	.quad	_caml_curry3
	.quad	216172782113783815
	.quad	_camlHector__Int.unsafe_set_729
	.data
	.align	3
	.quad	3063
	.globl	_camlHector__Int.69
_camlHector__Int.69:
	.quad	_camlHector__Int.pop_734
	.quad	72057594037927941
	.data
	.align	3
	.quad	3063
	.globl	_camlHector__Int.68
_camlHector__Int.68:
	.quad	_camlHector__Int.pop_opt_740
	.quad	72057594037927941
	.data
	.align	3
	.quad	3063
	.globl	_camlHector__Int.67
_camlHector__Int.67:
	.quad	_camlHector__Int.drop_746
	.quad	72057594037927941
	.data
	.align	3
	.quad	4087
	.globl	_camlHector__Int.66
_camlHector__Int.66:
	.quad	_caml_curry2
	.quad	144115188075855879
	.quad	_camlHector__Int.truncate_752
	.data
	.align	3
	.quad	3063
	.globl	_camlHector__Int.65
_camlHector__Int.65:
	.quad	_camlHector__Int.clear_756
	.quad	72057594037927941
	.data
	.align	3
	.quad	3063
	.globl	_camlHector__Int.64
_camlHector__Int.64:
	.quad	_camlHector__Int.reset_759
	.quad	72057594037927941
	.data
	.align	3
	.quad	4087
	.globl	_camlHector__Int.63
_camlHector__Int.63:
	.quad	_caml_curry2
	.quad	144115188075855879
	.quad	_camlHector__Int.set_lower_capacity_762
	.data
	.align	3
	.quad	4087
	.globl	_camlHector__Int.62
_camlHector__Int.62:
	.quad	_caml_curry3
	.quad	216172782113783815
	.quad	_camlHector__Int.really_set_higher_capacity_768
	.data
	.align	3
	.quad	4087
	.globl	_camlHector__Int.61
_camlHector__Int.61:
	.quad	_caml_curry2
	.quad	144115188075855879
	.quad	_camlHector__Int.set_higher_capacity_777
	.data
	.align	3
	.quad	4087
	.globl	_camlHector__Int.60
_camlHector__Int.60:
	.quad	_caml_curry2
	.quad	144115188075855879
	.quad	_camlHector__Int.set_capacity_784
	.data
	.align	3
	.quad	3063
	.globl	_camlHector__Int.59
_camlHector__Int.59:
	.quad	_camlHector__Int.next_capacity_789
	.quad	72057594037927941
	.data
	.align	3
	.quad	4087
	.globl	_camlHector__Int.58
_camlHector__Int.58:
	.quad	_caml_curry2
	.quad	144115188075855879
	.quad	_camlHector__Int.ensure_capacity_792
	.data
	.align	3
	.quad	4087
	.globl	_camlHector__Int.57
_camlHector__Int.57:
	.quad	_caml_curry2
	.quad	144115188075855879
	.quad	_camlHector__Int.ensure_extra_capacity_798
	.data
	.align	3
	.quad	3063
	.globl	_camlHector__Int.56
_camlHector__Int.56:
	.quad	_camlHector__Int.fit_capacity_802
	.quad	72057594037927941
	.data
	.align	3
	.quad	4087
	.globl	_camlHector__Int.55
_camlHector__Int.55:
	.quad	_caml_curry2
	.quad	144115188075855879
	.quad	_camlHector__Int.push_slow_path_807
	.data
	.align	3
	.quad	4087
	.globl	_camlHector__Int.54
_camlHector__Int.54:
	.quad	_caml_curry2
	.quad	144115188075855879
	.quad	_camlHector__Int.push_821
	.data
	.align	3
	.quad	4087
	.globl	_camlHector__Int.53
_camlHector__Int.53:
	.quad	_caml_curry2
	.quad	144115188075855879
	.quad	_camlHector__Int.iter_828
	.data
	.align	3
	.quad	4087
	.globl	_camlHector__Int.52
_camlHector__Int.52:
	.quad	_caml_curry4
	.quad	288230376151711751
	.quad	_camlHector__Int.find_835
	.data
	.align	3
	.quad	4087
	.globl	_camlHector__Int.51
_camlHector__Int.51:
	.quad	_caml_curry2
	.quad	144115188075855879
	.quad	_camlHector__Int.find_840
	.data
	.align	3
	.quad	4087
	.globl	_camlHector__Int.50
_camlHector__Int.50:
	.quad	_caml_curry2
	.quad	144115188075855879
	.quad	_camlHector__Int.show_845
	.data
	.align	3
	.quad	4087
	.globl	_camlHector__Int.49
_camlHector__Int.49:
	.quad	_caml_curry2
	.quad	144115188075855879
	.quad	_camlHector__Int.init_937
	.data
	.align	3
	.quad	4087
	.globl	_camlHector__Int.48
_camlHector__Int.48:
	.quad	_caml_curry2
	.quad	144115188075855879
	.quad	_camlHector__Int.get_940
	.data
	.align	3
	.quad	4087
	.globl	_camlHector__Int.47
_camlHector__Int.47:
	.quad	_caml_curry3
	.quad	216172782113783815
	.quad	_camlHector__Int.set_944
	.data
	.align	3
	.quad	4087
	.globl	_camlHector__Int.46
_camlHector__Int.46:
	.quad	_caml_curry2
	.quad	144115188075855879
	.quad	_camlHector__Int.truncate_949
	.data
	.align	3
	.quad	4087
	.globl	_camlHector__Int.45
_camlHector__Int.45:
	.quad	_caml_curry2
	.quad	144115188075855879
	.quad	_camlHector__Int.set_capacity_952
	.data
	.align	3
	.quad	4087
	.globl	_camlHector__Int.44
_camlHector__Int.44:
	.quad	_caml_curry2
	.quad	144115188075855879
	.quad	_camlHector__Int.ensure_capacity_955
	.data
	.align	3
	.quad	4087
	.globl	_camlHector__Int.43
_camlHector__Int.43:
	.quad	_caml_curry2
	.quad	144115188075855879
	.quad	_camlHector__Int.ensure_extra_capacity_958
	.data
	.align	3
	.quad	60160
	.globl	_camlHector__Int
	.globl	_camlHector__Int
_camlHector__Int:
	.quad	1
	.quad	1
	.quad	1
	.quad	1
	.quad	1
	.quad	1
	.quad	1
	.quad	1
	.quad	1
	.quad	1
	.quad	1
	.quad	1
	.quad	1
	.quad	1
	.quad	1
	.quad	1
	.quad	1
	.quad	1
	.quad	1
	.quad	1
	.quad	1
	.quad	1
	.quad	1
	.quad	1
	.quad	1
	.quad	1
	.quad	1
	.quad	1
	.quad	1
	.quad	1
	.quad	1
	.quad	1
	.quad	1
	.quad	1
	.quad	1
	.quad	1
	.quad	1
	.quad	1
	.quad	1
	.quad	1
	.quad	1
	.quad	1
	.quad	1
	.quad	1
	.quad	1
	.quad	1
	.quad	1
	.quad	1
	.quad	1
	.quad	1
	.quad	1
	.quad	1
	.quad	1
	.quad	1
	.quad	1
	.quad	1
	.quad	1
	.quad	1
	.data
	.align	3
	.globl	_camlHector__Int.gc_roots
	.globl	_camlHector__Int.gc_roots
_camlHector__Int.gc_roots:
	.quad	_camlHector__Int
	.quad	0
	.text
	.align	3
	.globl	_camlHector__Int.check_666
_camlHector__Int.check_666:
	.file	1	"Common.frag.ml"
	.cfi_startproc
L:
	orr	x0, xzr, #1
	ret
	.cfi_endproc
	.text
	.align	3
	.globl	_camlHector__Int.fail_673
_camlHector__Int.fail_673:
	.cfi_startproc
L:
	mov	x1, x0
	adrp	x2, _camlStdlib@GOTPAGE
	ldr	x2, [x2, _camlStdlib@GOTPAGEOFF]
	ldr	x0, [x2, #0]
	b	_camlStdlib__Printf.ksprintf_447
	.cfi_endproc
	.text
	.align	3
	.globl	_camlHector__Int.capacity_failure_676
L:
	mov	x16, #34
	stp	x16, x30, [sp, #-16]!
	bl	_caml_call_realloc_stack
	ldp	x16, x30, [sp], #16
_camlHector__Int.capacity_failure_676:
	.cfi_startproc
	ldr	x16, [x28, #40]
	add	x16, x16, #328
	cmp	sp, x16
	bcc	L
	sub	sp, sp, #16
	.cfi_adjust_cfa_offset	16
	.cfi_offset 30, -8
	str	x30, [sp, #8]
L:
	ldr	x16, [x28, #0]
	cmp	x27, x16
	b.ls	L
L:
	str	x0, [sp, #0]
	adrp	x1, _camlHector__Int.16@GOTPAGE
	ldr	x1, [x1, _camlHector__Int.16@GOTPAGEOFF]
	adrp	x3, _camlStdlib@GOTPAGE
	ldr	x3, [x3, _camlStdlib@GOTPAGEOFF]
	ldr	x0, [x3, #0]
	bl	_camlStdlib__Printf.ksprintf_447
L:
	mov	x1, x0
	ldr	x6, [x1, #0]
	ldr	x0, [sp, #0]
	ldr	x30, [sp, #8]
	add	sp, sp, #16
	.cfi_adjust_cfa_offset	-16
	br	x6
	.cfi_adjust_cfa_offset	16
L:	bl	_caml_call_gc
L:	b	L
	.cfi_endproc
	.text
	.align	3
	.globl	_camlHector__Int.length_failure_679
L:
	mov	x16, #34
	stp	x16, x30, [sp, #-16]!
	bl	_caml_call_realloc_stack
	ldp	x16, x30, [sp], #16
_camlHector__Int.length_failure_679:
	.cfi_startproc
	ldr	x16, [x28, #40]
	add	x16, x16, #328
	cmp	sp, x16
	bcc	L
	sub	sp, sp, #16
	.cfi_adjust_cfa_offset	16
	.cfi_offset 30, -8
	str	x30, [sp, #8]
L:
	ldr	x16, [x28, #0]
	cmp	x27, x16
	b.ls	L
L:
	str	x0, [sp, #0]
	adrp	x1, _camlHector__Int.20@GOTPAGE
	ldr	x1, [x1, _camlHector__Int.20@GOTPAGEOFF]
	adrp	x3, _camlStdlib@GOTPAGE
	ldr	x3, [x3, _camlStdlib@GOTPAGEOFF]
	ldr	x0, [x3, #0]
	bl	_camlStdlib__Printf.ksprintf_447
L:
	mov	x1, x0
	ldr	x6, [x1, #0]
	ldr	x0, [sp, #0]
	ldr	x30, [sp, #8]
	add	sp, sp, #16
	.cfi_adjust_cfa_offset	-16
	br	x6
	.cfi_adjust_cfa_offset	16
L:	bl	_caml_call_gc
L:	b	L
	.cfi_endproc
	.text
	.align	3
	.globl	_camlHector__Int.index_failure_682
L:
	mov	x16, #36
	stp	x16, x30, [sp, #-16]!
	bl	_caml_call_realloc_stack
	ldp	x16, x30, [sp], #16
_camlHector__Int.index_failure_682:
	.cfi_startproc
	ldr	x16, [x28, #40]
	add	x16, x16, #344
	cmp	sp, x16
	bcc	L
	sub	sp, sp, #32
	.cfi_adjust_cfa_offset	32
	.cfi_offset 30, -8
	str	x30, [sp, #24]
L:
	ldr	x16, [x28, #0]
	cmp	x27, x16
	b.ls	L
L:
	ldr	x2, [x0, #0]
	str	x2, [sp, #8]
	str	x1, [sp, #0]
	adrp	x1, _camlHector__Int.29@GOTPAGE
	ldr	x1, [x1, _camlHector__Int.29@GOTPAGEOFF]
	adrp	x5, _camlStdlib@GOTPAGE
	ldr	x5, [x5, _camlStdlib@GOTPAGEOFF]
	ldr	x0, [x5, #0]
	bl	_camlStdlib__Printf.ksprintf_447
L:
	mov	x2, x0
	ldr	x0, [sp, #0]
	ldr	x1, [sp, #8]
	ldr	x30, [sp, #24]
	add	sp, sp, #32
	.cfi_adjust_cfa_offset	-32
	b	_caml_apply2
	.cfi_adjust_cfa_offset	32
L:	bl	_caml_call_gc
L:	b	L
	.cfi_endproc
	.text
	.align	3
	.globl	_camlHector__Int.violation_686
L:
	mov	x16, #36
	stp	x16, x30, [sp, #-16]!
	bl	_caml_call_realloc_stack
	ldp	x16, x30, [sp], #16
_camlHector__Int.violation_686:
	.cfi_startproc
	ldr	x16, [x28, #40]
	add	x16, x16, #344
	cmp	sp, x16
	bcc	L
	sub	sp, sp, #32
	.cfi_adjust_cfa_offset	32
	.cfi_offset 30, -8
	str	x30, [sp, #24]
L:
	ldr	x16, [x28, #0]
	cmp	x27, x16
	b.ls	L
L:
	ldr	x2, [x1, #-8]
	lsr	x3, x2, #9
	orr	x4, x3, #1
	str	x4, [sp, #8]
	str	x0, [sp, #0]
	adrp	x1, _camlHector__Int.39@GOTPAGE
	ldr	x1, [x1, _camlHector__Int.39@GOTPAGEOFF]
	adrp	x7, _camlStdlib@GOTPAGE
	ldr	x7, [x7, _camlStdlib@GOTPAGEOFF]
	ldr	x0, [x7, #0]
	bl	_camlStdlib__Printf.ksprintf_447
L:
	mov	x2, x0
	ldr	x0, [sp, #0]
	ldr	x1, [sp, #8]
	ldr	x30, [sp, #24]
	add	sp, sp, #32
	.cfi_adjust_cfa_offset	-32
	b	_caml_apply2
	.cfi_adjust_cfa_offset	32
L:	bl	_caml_call_gc
L:	b	L
	.cfi_endproc
	.text
	.align	3
	.globl	_camlHector__Int.validate_690
_camlHector__Int.validate_690:
	.cfi_startproc
L:
	ldr	x2, [x1, #-8]
	lsr	x3, x2, #9
	orr	x4, x3, #1
	cmp	x0, x4
	b.le	L
	b	_camlHector__Int.violation_686
L:
	orr	x0, xzr, #1
	ret
	.cfi_endproc
	.text
	.align	3
	.globl	_camlHector__Int.create_694
_camlHector__Int.create_694:
	.cfi_startproc
	sub	sp, sp, #16
	.cfi_adjust_cfa_offset	16
	.cfi_offset 30, -8
	str	x30, [sp, #8]
L:
	ldr	x16, [x28, #0]
	sub	x27, x27, #32
	cmp	x27, x16
	b.lo	L
L:	add	x0, x27, #8
	orr	x2, xzr, #3072
	str	x2, [x0, #-8]
	orr	x3, xzr, #1
	str	x3, [x0, #0]
	orr	x4, xzr, #1
	str	x4, [x0, #8]
	adrp	x5, _camlHector__Int.1@GOTPAGE
	ldr	x5, [x5, _camlHector__Int.1@GOTPAGEOFF]
	str	x5, [x0, #16]
	ldr	x30, [sp, #8]
	add	sp, sp, #16
	.cfi_adjust_cfa_offset	-16
	ret
	.cfi_adjust_cfa_offset	16
L:	bl	_caml_call_gc
L:	b	L
	.cfi_endproc
	.text
	.align	3
	.globl	_camlHector__Int.init_700
L:
	mov	x16, #34
	stp	x16, x30, [sp, #-16]!
	bl	_caml_call_realloc_stack
	ldp	x16, x30, [sp], #16
_camlHector__Int.init_700:
	.cfi_startproc
	ldr	x16, [x28, #40]
	add	x16, x16, #328
	cmp	sp, x16
	bcc	L
	sub	sp, sp, #16
	.cfi_adjust_cfa_offset	16
	.cfi_offset 30, -8
	str	x30, [sp, #8]
L:
	str	x0, [sp, #0]
	bl	_camlHector__Int.init_598
L:
	ldr	x16, [x28, #0]
	sub	x27, x27, #32
	cmp	x27, x16
	b.lo	L
L:	add	x3, x27, #8
	orr	x4, xzr, #3072
	str	x4, [x3, #-8]
	ldr	x5, [sp, #0]
	str	x5, [x3, #0]
	str	x5, [x3, #8]
	str	x0, [x3, #16]
	mov	x0, x3
	ldr	x30, [sp, #8]
	add	sp, sp, #16
	.cfi_adjust_cfa_offset	-16
	ret
	.cfi_adjust_cfa_offset	16
L:	bl	_caml_call_gc
L:	b	L
	.cfi_endproc
	.text
	.align	3
	.globl	_camlHector__Int.copy_707
L:
	mov	x16, #34
	stp	x16, x30, [sp, #-16]!
	bl	_caml_call_realloc_stack
	ldp	x16, x30, [sp], #16
_camlHector__Int.copy_707:
	.cfi_startproc
	ldr	x16, [x28, #40]
	add	x16, x16, #328
	cmp	sp, x16
	bcc	L
	sub	sp, sp, #16
	.cfi_adjust_cfa_offset	16
	.cfi_offset 30, -8
	str	x30, [sp, #8]
L:
	ldr	x2, [x0, #0]
	str	x2, [sp, #0]
	ldr	x0, [x0, #16]
	orr	x1, xzr, #1
	bl	_camlHector__Int.sub_651
L:
	ldr	x16, [x28, #0]
	sub	x27, x27, #32
	cmp	x27, x16
	b.lo	L
L:	add	x5, x27, #8
	orr	x6, xzr, #3072
	str	x6, [x5, #-8]
	ldr	x7, [sp, #0]
	str	x7, [x5, #0]
	str	x7, [x5, #8]
	str	x0, [x5, #16]
	mov	x0, x5
	ldr	x30, [sp, #8]
	add	sp, sp, #16
	.cfi_adjust_cfa_offset	-16
	ret
	.cfi_adjust_cfa_offset	16
L:	bl	_caml_call_gc
L:	b	L
	.cfi_endproc
	.text
	.align	3
	.globl	_camlHector__Int.length_714
_camlHector__Int.length_714:
	.cfi_startproc
L:
	ldr	x0, [x0, #0]
	ret
	.cfi_endproc
	.text
	.align	3
	.globl	_camlHector__Int.is_empty_717
_camlHector__Int.is_empty_717:
	.cfi_startproc
L:
	ldr	x1, [x0, #0]
	cmp	x1, #1
	cset	x2, eq
	orr	x3, xzr, #1
	add	x0, x3, x2, lsl #1
	ret
	.cfi_endproc
	.text
	.align	3
	.globl	_camlHector__Int.elements_720
_camlHector__Int.elements_720:
	.cfi_startproc
	sub	sp, sp, #16
	.cfi_adjust_cfa_offset	16
	.cfi_offset 30, -8
	str	x30, [sp, #8]
L:
	ldr	x16, [x28, #0]
	cmp	x27, x16
	b.ls	L
L:
	ldr	x2, [x0, #0]
	ldr	x0, [x0, #16]
	orr	x1, xzr, #1
	ldr	x30, [sp, #8]
	add	sp, sp, #16
	.cfi_adjust_cfa_offset	-16
	b	_camlHector__Int.sub_651
	.cfi_adjust_cfa_offset	16
L:	bl	_caml_call_gc
L:	b	L
	.cfi_endproc
	.text
	.align	3
	.globl	_camlHector__Int.unsafe_get_725
_camlHector__Int.unsafe_get_725:
	.cfi_startproc
L:
	ldr	x2, [x0, #16]
	add	x3, x2, x1, lsl #2
	ldr	x0, [x3, #-4]
	ret
	.cfi_endproc
	.text
	.align	3
	.globl	_camlHector__Int.unsafe_set_729
_camlHector__Int.unsafe_set_729:
	.cfi_startproc
L:
	ldr	x3, [x0, #16]
	add	x4, x3, x1, lsl #2
	dmb	ishld
	str	x2, [x4, #-4]
	orr	x0, xzr, #1
	ret
	.cfi_endproc
	.text
	.align	3
	.globl	_camlHector__Int.pop_734
_camlHector__Int.pop_734:
	.cfi_startproc
	sub	sp, sp, #16
	.cfi_adjust_cfa_offset	16
	.cfi_offset 30, -8
	str	x30, [sp, #8]
L:
	ldr	x1, [x0, #0]
	cmp	x1, #1
	b.le	L
	sub	x4, x1, #2
	dmb	ishld
	str	x4, [x0, #0]
	ldr	x5, [x0, #16]
	add	x6, x5, x4, lsl #2
	ldr	x0, [x6, #-4]
	ldr	x30, [sp, #8]
	add	sp, sp, #16
	.cfi_adjust_cfa_offset	-16
	ret
	.cfi_adjust_cfa_offset	16
L:
	adrp	x2, _camlStdlib@GOTPAGE
	ldr	x2, [x2, _camlStdlib@GOTPAGEOFF]
	ldr	x0, [x2, #56]
	bl	_caml_raise_exn
L:
	.cfi_endproc
	.text
	.align	3
	.globl	_camlHector__Int.pop_opt_740
_camlHector__Int.pop_opt_740:
	.cfi_startproc
	sub	sp, sp, #16
	.cfi_adjust_cfa_offset	16
	.cfi_offset 30, -8
	str	x30, [sp, #8]
L:
	ldr	x1, [x0, #0]
	cmp	x1, #1
	b.le	L
	sub	x3, x1, #2
	dmb	ishld
	str	x3, [x0, #0]
	ldr	x16, [x28, #0]
	sub	x27, x27, #16
	cmp	x27, x16
	b.lo	L
L:	add	x4, x27, #8
	orr	x5, xzr, #1024
	str	x5, [x4, #-8]
	ldr	x6, [x0, #16]
	add	x7, x6, x3, lsl #2
	ldr	x8, [x7, #-4]
	str	x8, [x4, #0]
	mov	x0, x4
	ldr	x30, [sp, #8]
	add	sp, sp, #16
	.cfi_adjust_cfa_offset	-16
	ret
	.cfi_adjust_cfa_offset	16
L:
	orr	x0, xzr, #1
	ldr	x30, [sp, #8]
	add	sp, sp, #16
	.cfi_adjust_cfa_offset	-16
	ret
	.cfi_adjust_cfa_offset	16
L:	bl	_caml_call_gc
L:	b	L
	.cfi_endproc
	.text
	.align	3
	.globl	_camlHector__Int.drop_746
_camlHector__Int.drop_746:
	.cfi_startproc
L:
	ldr	x1, [x0, #0]
	cmp	x1, #1
	b.le	L
	sub	x3, x1, #2
	dmb	ishld
	str	x3, [x0, #0]
	orr	x0, xzr, #1
	ret
L:
	orr	x0, xzr, #1
	ret
	.cfi_endproc
	.text
	.align	3
	.globl	_camlHector__Int.truncate_752
_camlHector__Int.truncate_752:
	.cfi_startproc
L:
	ldr	x2, [x0, #0]
	cmp	x1, x2
	b.ge	L
	dmb	ishld
	str	x1, [x0, #0]
	orr	x0, xzr, #1
	ret
L:
	orr	x0, xzr, #1
	ret
	.cfi_endproc
	.text
	.align	3
	.globl	_camlHector__Int.clear_756
_camlHector__Int.clear_756:
	.cfi_startproc
L:
	orr	x1, xzr, #1
	dmb	ishld
	str	x1, [x0, #0]
	orr	x0, xzr, #1
	ret
	.cfi_endproc
	.text
	.align	3
	.globl	_camlHector__Int.reset_759
_camlHector__Int.reset_759:
	.cfi_startproc
	sub	sp, sp, #16
	.cfi_adjust_cfa_offset	16
	.cfi_offset 30, -8
	str	x30, [sp, #8]
L:
	orr	x1, xzr, #1
	dmb	ishld
	str	x1, [x0, #0]
	orr	x2, xzr, #1
	dmb	ishld
	str	x2, [x0, #8]
	adrp	x1, _camlHector__Int.1@GOTPAGE
	ldr	x1, [x1, _camlHector__Int.1@GOTPAGEOFF]
	add	x0, x0, #16
	str	x29, [sp, -16]!
	mov	x29, sp
	.cfi_remember_state
	.cfi_def_cfa_register 29
	ldr	x16, [x28, 64]
	mov	sp, x16
	bl	_caml_modify
	mov	sp, x29
	ldr	x29, [sp], 16
	.cfi_restore_state
	orr	x0, xzr, #1
	ldr	x30, [sp, #8]
	add	sp, sp, #16
	.cfi_adjust_cfa_offset	-16
	ret
	.cfi_adjust_cfa_offset	16
	.cfi_endproc
	.text
	.align	3
	.globl	_camlHector__Int.set_lower_capacity_762
L:
	mov	x16, #36
	stp	x16, x30, [sp, #-16]!
	bl	_caml_call_realloc_stack
	ldp	x16, x30, [sp], #16
_camlHector__Int.set_lower_capacity_762:
	.cfi_startproc
	ldr	x16, [x28, #40]
	add	x16, x16, #344
	cmp	sp, x16
	bcc	L
	sub	sp, sp, #32
	.cfi_adjust_cfa_offset	32
	.cfi_offset 30, -8
	str	x30, [sp, #24]
L:
	dmb	ishld
	str	x1, [x0, #8]
	ldr	x2, [x0, #0]
	ldr	x3, [x0, #16]
	ldr	x4, [x3, #-8]
	lsr	x5, x4, #9
	orr	x6, x5, #1
	cmp	x6, #1
	b.le	L
	str	x3, [sp, #0]
	str	x1, [sp, #8]
	str	x0, [sp, #16]
	mov	x0, x2
	bl	_camlStdlib.min_44
L:
	ldr	x13, [sp, #16]
	dmb	ishld
	str	x0, [x13, #0]
	orr	x1, xzr, #1
	ldr	x0, [sp, #0]
	ldr	x2, [sp, #8]
	bl	_camlHector__Int.sub_651
L:
	mov	x1, x0
	ldr	x19, [sp, #16]
	add	x0, x19, #16
	str	x29, [sp, -16]!
	mov	x29, sp
	.cfi_remember_state
	.cfi_def_cfa_register 29
	ldr	x16, [x28, 64]
	mov	sp, x16
	bl	_caml_modify
	mov	sp, x29
	ldr	x29, [sp], 16
	.cfi_restore_state
	orr	x0, xzr, #1
	ldr	x30, [sp, #24]
	add	sp, sp, #32
	.cfi_adjust_cfa_offset	-32
	ret
	.cfi_adjust_cfa_offset	32
L:
	orr	x0, xzr, #1
	ldr	x30, [sp, #24]
	add	sp, sp, #32
	.cfi_adjust_cfa_offset	-32
	ret
	.cfi_adjust_cfa_offset	32
	.cfi_endproc
	.text
	.align	3
	.globl	_camlHector__Int.really_set_higher_capacity_768
L:
	mov	x16, #38
	stp	x16, x30, [sp, #-16]!
	bl	_caml_call_realloc_stack
	ldp	x16, x30, [sp], #16
_camlHector__Int.really_set_higher_capacity_768:
	.cfi_startproc
	ldr	x16, [x28, #40]
	add	x16, x16, #360
	cmp	sp, x16
	bcc	L
	sub	sp, sp, #48
	.cfi_adjust_cfa_offset	48
	.cfi_offset 30, -8
	str	x30, [sp, #40]
L:
	str	x0, [sp, #8]
	str	x1, [sp, #0]
	ldr	x5, [x0, #0]
	str	x5, [sp, #24]
	ldr	x6, [x0, #16]
	str	x6, [sp, #32]
	mov	x0, x1
	mov	x1, x2
	bl	_camlHector__Int.make_492
L:
	str	x0, [sp, #16]
	ldr	x2, [sp, #24]
	cmp	x2, #1
	b.lt	L
	ldr	x8, [sp, #32]
	.file	2	"MonoBody.frag.ml"
	ldr	x8, [x8, #-8]
	lsr	x9, x8, #9
	orr	x10, x9, #1
	cmp	x2, x10
	b.le	L
L:
	orr	x1, xzr, #1
	ldr	x0, [sp, #32]
	bl	_camlHector__Int.violation_605
L:
L:
	ldr	x2, [sp, #24]
	cmp	x2, #1
	b.lt	L
	ldr	x11, [sp, #16]
	ldr	x12, [x11, #-8]
	lsr	x13, x12, #9
	orr	x14, x13, #1
	cmp	x2, x14
	b.le	L
L:
	orr	x1, xzr, #1
	ldr	x0, [sp, #16]
	bl	_camlHector__Int.violation_605
L:
L:
	orr	x19, xzr, #1
	ldr	x13, [sp, #24]
	sub	x20, x13, #2
	cmp	x19, x20
	b.gt	L
L:
	ldr	x14, [sp, #32]
	ldrb	w21, [x14, #-8]
	cmp	x21, #254
	b.eq	L
	add	x21, x14, x19, lsl #2
	ldr	x1, [x21, #-4]
	b	L
L:
	ldr	x16, [x28, #0]
	sub	x27, x27, #16
	cmp	x27, x16
	b.lo	L
L:	add	x1, x27, #8
	movz	x24, #1277, lsl #0
	str	x24, [x1, #-8]
	add	x25, x14, x19, lsl #2
	ldr	d0, [x25, #-4]
	str	d0, [x1, #0]
L:
	ldr	x15, [sp, #16]
	ldrb	w0, [x15, #-8]
	cmp	x0, #254
	b.eq	L
	add	x2, x15, x19, lsl #2
	sub	x0, x2, #4
	str	x29, [sp, -16]!
	mov	x29, sp
	.cfi_remember_state
	.cfi_def_cfa_register 29
	ldr	x16, [x28, 64]
	mov	sp, x16
	bl	_caml_modify
	mov	sp, x29
	ldr	x29, [sp], 16
	.cfi_restore_state
	b	L
L:
	add	x3, x15, x19, lsl #2
	ldr	d1, [x1, #0]
	str	d1, [x3, #-4]
L:
	mov	x4, x19
	add	x19, x19, #2
	cmp	x4, x20
	b.eq	L
	ldr	x16, [x28, #0]
	cmp	x27, x16
	b.hi	L
	b	L
L:
	ldr	x19, [sp, #0]
	ldr	x20, [sp, #8]
	dmb	ishld
	str	x19, [x20, #8]
	add	x0, x20, #16
	ldr	x21, [sp, #16]
	mov	x1, x21
	str	x29, [sp, -16]!
	mov	x29, sp
	.cfi_remember_state
	.cfi_def_cfa_register 29
	ldr	x16, [x28, 64]
	mov	sp, x16
	bl	_caml_modify
	mov	sp, x29
	ldr	x29, [sp], 16
	.cfi_restore_state
	mov	x0, x21
	ldr	x30, [sp, #40]
	add	sp, sp, #48
	.cfi_adjust_cfa_offset	-48
	ret
	.cfi_adjust_cfa_offset	48
L:	bl	_caml_call_gc
L:	b	L
L:	bl	_caml_call_gc
L:	b	L
	.cfi_endproc
	.text
	.align	3
	.globl	_camlHector__Int.set_higher_capacity_777
L:
	mov	x16, #34
	stp	x16, x30, [sp, #-16]!
	bl	_caml_call_realloc_stack
	ldp	x16, x30, [sp], #16
_camlHector__Int.set_higher_capacity_777:
	.cfi_startproc
	ldr	x16, [x28, #40]
	add	x16, x16, #328
	cmp	sp, x16
	bcc	L
	sub	sp, sp, #16
	.cfi_adjust_cfa_offset	16
	.cfi_offset 30, -8
	str	x30, [sp, #8]
L:
	ldr	x2, [x0, #16]
	ldr	x3, [x2, #-8]
	lsr	x4, x3, #9
	orr	x5, x4, #1
	cmp	x5, #1
	b.ne	L
	dmb	ishld
	str	x1, [x0, #8]
	orr	x0, xzr, #1
	ldr	x30, [sp, #8]
	add	sp, sp, #16
	.cfi_adjust_cfa_offset	-16
	ret
	.cfi_adjust_cfa_offset	16
L:
	ldr	x2, [x2, #0]
	bl	_camlHector__Int.really_set_higher_capacity_768
L:
	orr	x0, xzr, #1
	ldr	x30, [sp, #8]
	add	sp, sp, #16
	.cfi_adjust_cfa_offset	-16
	ret
	.cfi_adjust_cfa_offset	16
	.cfi_endproc
	.text
	.align	3
	.globl	_camlHector__Int.set_capacity_784
L:
	mov	x16, #36
	stp	x16, x30, [sp, #-16]!
	bl	_caml_call_realloc_stack
	ldp	x16, x30, [sp], #16
_camlHector__Int.set_capacity_784:
	.cfi_startproc
	ldr	x16, [x28, #40]
	add	x16, x16, #344
	cmp	sp, x16
	bcc	L
	sub	sp, sp, #32
	.cfi_adjust_cfa_offset	32
	.cfi_offset 30, -8
	str	x30, [sp, #24]
L:
	ldr	x2, [x0, #8]
	cmp	x1, x2
	b.ge	L
	dmb	ishld
	str	x1, [x0, #8]
	ldr	x4, [x0, #0]
	ldr	x5, [x0, #16]
	ldr	x6, [x5, #-8]
	lsr	x7, x6, #9
	orr	x8, x7, #1
	cmp	x8, #1
	b.le	L
	str	x5, [sp, #0]
	str	x1, [sp, #8]
	str	x0, [sp, #16]
	mov	x0, x4
	bl	_camlStdlib.min_44
L:
	ldr	x15, [sp, #16]
	dmb	ishld
	str	x0, [x15, #0]
	orr	x1, xzr, #1
	ldr	x0, [sp, #0]
	ldr	x2, [sp, #8]
	bl	_camlHector__Int.sub_651
L:
	mov	x1, x0
	ldr	x21, [sp, #16]
	add	x0, x21, #16
	str	x29, [sp, -16]!
	mov	x29, sp
	.cfi_remember_state
	.cfi_def_cfa_register 29
	ldr	x16, [x28, 64]
	mov	sp, x16
	bl	_caml_modify
	mov	sp, x29
	ldr	x29, [sp], 16
	.cfi_restore_state
	orr	x0, xzr, #1
	ldr	x30, [sp, #24]
	add	sp, sp, #32
	.cfi_adjust_cfa_offset	-32
	ret
	.cfi_adjust_cfa_offset	32
L:
	orr	x0, xzr, #1
	ldr	x30, [sp, #24]
	add	sp, sp, #32
	.cfi_adjust_cfa_offset	-32
	ret
	.cfi_adjust_cfa_offset	32
L:
	cmp	x1, x2
	b.le	L
	ldr	x30, [sp, #24]
	add	sp, sp, #32
	.cfi_adjust_cfa_offset	-32
	b	_camlHector__Int.set_higher_capacity_777
	.cfi_adjust_cfa_offset	32
L:
	orr	x0, xzr, #1
	ldr	x30, [sp, #24]
	add	sp, sp, #32
	.cfi_adjust_cfa_offset	-32
	ret
	.cfi_adjust_cfa_offset	32
	.cfi_endproc
	.text
	.align	3
	.globl	_camlHector__Int.next_capacity_789
_camlHector__Int.next_capacity_789:
	.cfi_startproc
L:
	cmp	x0, #1025
	b.gt	L
	movn	x1, #0
	add	x1, x1, x0, lsl #1
	b	L
L:
	asr	x3, x0, #1
	lsr	x4, x3, #63
	add	x5, x3, x4
	orr	x6, x5, #1
	add	x7, x0, x6
	sub	x1, x7, #1
L:
	movz	x0, #17, lsl #0
	b	_camlStdlib.max_48
	.cfi_endproc
	.text
	.align	3
	.globl	_camlHector__Int.ensure_capacity_792
L:
	mov	x16, #36
	stp	x16, x30, [sp, #-16]!
	bl	_caml_call_realloc_stack
	ldp	x16, x30, [sp], #16
_camlHector__Int.ensure_capacity_792:
	.cfi_startproc
	ldr	x16, [x28, #40]
	add	x16, x16, #344
	cmp	sp, x16
	bcc	L
	sub	sp, sp, #32
	.cfi_adjust_cfa_offset	32
	.cfi_offset 30, -8
	str	x30, [sp, #24]
L:
	ldr	x2, [x0, #8]
	cmp	x1, x2
	b.le	L
	str	x1, [sp, #0]
	str	x0, [sp, #8]
	cmp	x2, #1025
	b.gt	L
	movn	x4, #0
	add	x1, x4, x2, lsl #1
	b	L
L:
	asr	x6, x2, #1
	lsr	x7, x6, #63
	add	x8, x6, x7
	orr	x9, x8, #1
	add	x10, x2, x9
	sub	x1, x10, #1
L:
	movz	x0, #17, lsl #0
	bl	_camlStdlib.max_48
L:
	ldr	x1, [sp, #0]
	bl	_camlStdlib.max_48
L:
	mov	x1, x0
	ldr	x0, [sp, #8]
	ldr	x30, [sp, #24]
	add	sp, sp, #32
	.cfi_adjust_cfa_offset	-32
	b	_camlHector__Int.set_higher_capacity_777
	.cfi_adjust_cfa_offset	32
L:
	orr	x0, xzr, #1
	ldr	x30, [sp, #24]
	add	sp, sp, #32
	.cfi_adjust_cfa_offset	-32
	ret
	.cfi_adjust_cfa_offset	32
	.cfi_endproc
	.text
	.align	3
	.globl	_camlHector__Int.ensure_extra_capacity_798
L:
	mov	x16, #36
	stp	x16, x30, [sp, #-16]!
	bl	_caml_call_realloc_stack
	ldp	x16, x30, [sp], #16
_camlHector__Int.ensure_extra_capacity_798:
	.cfi_startproc
	ldr	x16, [x28, #40]
	add	x16, x16, #344
	cmp	sp, x16
	bcc	L
	sub	sp, sp, #32
	.cfi_adjust_cfa_offset	32
	.cfi_offset 30, -8
	str	x30, [sp, #24]
L:
	ldr	x2, [x0, #0]
	add	x3, x2, x1
	sub	x4, x3, #1
	ldr	x5, [x0, #8]
	cmp	x4, x5
	b.le	L
	str	x4, [sp, #0]
	str	x0, [sp, #8]
	cmp	x5, #1025
	b.gt	L
	movn	x7, #0
	add	x1, x7, x5, lsl #1
	b	L
L:
	asr	x9, x5, #1
	lsr	x10, x9, #63
	add	x11, x9, x10
	orr	x12, x11, #1
	add	x13, x5, x12
	sub	x1, x13, #1
L:
	movz	x0, #17, lsl #0
	bl	_camlStdlib.max_48
L:
	ldr	x1, [sp, #0]
	bl	_camlStdlib.max_48
L:
	mov	x1, x0
	ldr	x0, [sp, #8]
	ldr	x30, [sp, #24]
	add	sp, sp, #32
	.cfi_adjust_cfa_offset	-32
	b	_camlHector__Int.set_higher_capacity_777
	.cfi_adjust_cfa_offset	32
L:
	orr	x0, xzr, #1
	ldr	x30, [sp, #24]
	add	sp, sp, #32
	.cfi_adjust_cfa_offset	-32
	ret
	.cfi_adjust_cfa_offset	32
	.cfi_endproc
	.text
	.align	3
	.globl	_camlHector__Int.fit_capacity_802
L:
	mov	x16, #36
	stp	x16, x30, [sp, #-16]!
	bl	_caml_call_realloc_stack
	ldp	x16, x30, [sp], #16
_camlHector__Int.fit_capacity_802:
	.cfi_startproc
	ldr	x16, [x28, #40]
	add	x16, x16, #344
	cmp	sp, x16
	bcc	L
	sub	sp, sp, #32
	.cfi_adjust_cfa_offset	32
	.cfi_offset 30, -8
	str	x30, [sp, #24]
L:
	ldr	x1, [x0, #0]
	ldr	x2, [x0, #8]
	cmp	x1, x2
	b.ge	L
	dmb	ishld
	str	x1, [x0, #8]
	ldr	x4, [x0, #0]
	ldr	x5, [x0, #16]
	ldr	x6, [x5, #-8]
	lsr	x7, x6, #9
	orr	x8, x7, #1
	cmp	x8, #1
	b.le	L
	str	x5, [sp, #0]
	str	x1, [sp, #8]
	str	x0, [sp, #16]
	mov	x0, x4
	bl	_camlStdlib.min_44
L:
	ldr	x15, [sp, #16]
	dmb	ishld
	str	x0, [x15, #0]
	orr	x1, xzr, #1
	ldr	x0, [sp, #0]
	ldr	x2, [sp, #8]
	bl	_camlHector__Int.sub_651
L:
	mov	x1, x0
	ldr	x21, [sp, #16]
	add	x0, x21, #16
	str	x29, [sp, -16]!
	mov	x29, sp
	.cfi_remember_state
	.cfi_def_cfa_register 29
	ldr	x16, [x28, 64]
	mov	sp, x16
	bl	_caml_modify
	mov	sp, x29
	ldr	x29, [sp], 16
	.cfi_restore_state
	orr	x0, xzr, #1
	ldr	x30, [sp, #24]
	add	sp, sp, #32
	.cfi_adjust_cfa_offset	-32
	ret
	.cfi_adjust_cfa_offset	32
L:
	orr	x0, xzr, #1
	ldr	x30, [sp, #24]
	add	sp, sp, #32
	.cfi_adjust_cfa_offset	-32
	ret
	.cfi_adjust_cfa_offset	32
L:
	orr	x0, xzr, #1
	ldr	x30, [sp, #24]
	add	sp, sp, #32
	.cfi_adjust_cfa_offset	-32
	ret
	.cfi_adjust_cfa_offset	32
	.cfi_endproc
	.text
	.align	3
	.globl	_camlHector__Int.push_slow_path_807
L:
	mov	x16, #38
	stp	x16, x30, [sp, #-16]!
	bl	_caml_call_realloc_stack
	ldp	x16, x30, [sp], #16
_camlHector__Int.push_slow_path_807:
	.cfi_startproc
	ldr	x16, [x28, #40]
	add	x16, x16, #360
	cmp	sp, x16
	bcc	L
	sub	sp, sp, #48
	.cfi_adjust_cfa_offset	48
	.cfi_offset 30, -8
	str	x30, [sp, #40]
L:
	str	x0, [sp, #16]
	str	x1, [sp, #24]
	ldr	x2, [x0, #0]
	ldr	x0, [x0, #8]
	cmp	x2, x0
	b.ge	L
	bl	_camlHector__Int.make_492
L:
	mov	x23, x0
	ldr	x19, [sp, #16]
	add	x0, x19, #16
	mov	x1, x23
	str	x29, [sp, -16]!
	mov	x29, sp
	.cfi_remember_state
	.cfi_def_cfa_register 29
	ldr	x16, [x28, 64]
	mov	sp, x16
	bl	_caml_modify
	mov	sp, x29
	ldr	x29, [sp], 16
	.cfi_restore_state
	ldr	x2, [sp, #24]
	dmb	ishld
	str	x2, [x23, #0]
	orr	x25, xzr, #3
	dmb	ishld
	str	x25, [x19, #0]
	orr	x0, xzr, #1
	ldr	x30, [sp, #40]
	add	sp, sp, #48
	.cfi_adjust_cfa_offset	-48
	ret
	.cfi_adjust_cfa_offset	48
L:
	str	x2, [sp, #8]
	add	x4, x2, #2
	str	x4, [sp, #0]
	cmp	x0, #1025
	b.gt	L
	movn	x5, #0
	add	x1, x5, x0, lsl #1
	b	L
L:
	asr	x7, x0, #1
	lsr	x8, x7, #63
	add	x9, x7, x8
	orr	x10, x9, #1
	add	x11, x0, x10
	sub	x1, x11, #1
L:
	movz	x0, #17, lsl #0
	bl	_camlStdlib.max_48
L:
	ldr	x1, [sp, #0]
	bl	_camlStdlib.max_48
L:
	mov	x1, x0
	ldr	x0, [sp, #16]
	ldr	x2, [sp, #24]
	bl	_camlHector__Int.really_set_higher_capacity_768
L:
	ldr	x6, [sp, #8]
	add	x20, x0, x6, lsl #2
	ldr	x7, [sp, #24]
	dmb	ishld
	str	x7, [x20, #-4]
	add	x21, x6, #2
	ldr	x8, [sp, #16]
	dmb	ishld
	str	x21, [x8, #0]
	orr	x0, xzr, #1
	ldr	x30, [sp, #40]
	add	sp, sp, #48
	.cfi_adjust_cfa_offset	-48
	ret
	.cfi_adjust_cfa_offset	48
	.cfi_endproc
	.text
	.align	3
	.globl	_camlHector__Int.push_821
_camlHector__Int.push_821:
	.cfi_startproc
L:
	ldr	x2, [x0, #0]
	ldr	x3, [x0, #16]
	ldr	x4, [x3, #-8]
	lsr	x5, x4, #9
	orr	x6, x5, #1
	cmp	x2, x6
	b.ge	L
	add	x7, x3, x2, lsl #2
	dmb	ishld
	str	x1, [x7, #-4]
	add	x8, x2, #2
	dmb	ishld
	str	x8, [x0, #0]
	orr	x0, xzr, #1
	ret
L:
	b	_camlHector__Int.push_slow_path_807
	.cfi_endproc
	.text
	.align	3
	.globl	_camlHector__Int.iter_828
L:
	mov	x16, #38
	stp	x16, x30, [sp, #-16]!
	bl	_caml_call_realloc_stack
	ldp	x16, x30, [sp], #16
_camlHector__Int.iter_828:
	.cfi_startproc
	ldr	x16, [x28, #40]
	add	x16, x16, #360
	cmp	sp, x16
	bcc	L
	sub	sp, sp, #48
	.cfi_adjust_cfa_offset	48
	.cfi_offset 30, -8
	str	x30, [sp, #40]
L:
	str	x0, [sp, #16]
	ldr	x0, [x1, #0]
	str	x0, [sp, #0]
	ldr	x1, [x1, #16]
	str	x1, [sp, #8]
	ldr	x4, [x1, #-8]
	lsr	x5, x4, #9
	orr	x6, x5, #1
	cmp	x0, x6
	b.le	L
	bl	_camlHector__Int.violation_686
L:
L:
	orr	x7, xzr, #1
	ldr	x19, [sp, #0]
	sub	x9, x19, #2
	cmp	x7, x9
	b.gt	L
	str	x9, [sp, #24]
	str	x7, [sp, #0]
L:
	ldr	x20, [sp, #8]
	add	x10, x20, x7, lsl #2
	ldr	x0, [x10, #-4]
	ldr	x1, [sp, #16]
	ldr	x12, [x1, #0]
	blr	x12
L:
	ldr	x7, [sp, #0]
	mov	x13, x7
	add	x7, x7, #2
	str	x7, [sp, #0]
	ldr	x23, [sp, #24]
	cmp	x13, x23
	b.eq	L
	ldr	x16, [x28, #0]
	cmp	x27, x16
	b.hi	L
	b	L
L:
	orr	x0, xzr, #1
	ldr	x30, [sp, #40]
	add	sp, sp, #48
	.cfi_adjust_cfa_offset	-48
	ret
	.cfi_adjust_cfa_offset	48
L:	bl	_caml_call_gc
L:	b	L
	.cfi_endproc
	.text
	.align	3
	.globl	_camlHector__Int.find_835
L:
	mov	x16, #38
	stp	x16, x30, [sp, #-16]!
	bl	_caml_call_realloc_stack
	ldp	x16, x30, [sp], #16
_camlHector__Int.find_835:
	.cfi_startproc
	ldr	x16, [x28, #40]
	add	x16, x16, #360
	cmp	sp, x16
	bcc	L
	sub	sp, sp, #48
	.cfi_adjust_cfa_offset	48
	.cfi_offset 30, -8
	str	x30, [sp, #40]
L:
	mov	x4, x0
	ldr	x16, [x28, #0]
	cmp	x27, x16
	b.ls	L
L:
	cmp	x3, x1
	b.ne	L
	adrp	x13, _camlStdlib@GOTPAGE
	ldr	x13, [x13, _camlStdlib@GOTPAGEOFF]
	ldr	x0, [x13, #56]
	bl	_caml_raise_exn
L:
L:
	str	x3, [sp, #24]
	str	x2, [sp, #16]
	str	x1, [sp, #8]
	str	x4, [sp, #0]
	ldrb	w5, [x2, #-8]
	cmp	x5, #254
	b.eq	L
	add	x5, x2, x3, lsl #2
	ldr	x0, [x5, #-4]
	b	L
L:
	ldr	x16, [x28, #0]
	sub	x27, x27, #16
	cmp	x27, x16
	b.lo	L
L:	add	x0, x27, #8
	movz	x8, #1277, lsl #0
	str	x8, [x0, #-8]
	add	x9, x2, x3, lsl #2
	ldr	d0, [x9, #-4]
	str	d0, [x0, #0]
L:
	ldr	x10, [x4, #0]
	mov	x1, x4
	blr	x10
L:
	cmp	x0, #1
	b.eq	L
	ldr	x0, [sp, #24]
	ldr	x30, [sp, #40]
	add	sp, sp, #48
	.cfi_adjust_cfa_offset	-48
	ret
	.cfi_adjust_cfa_offset	48
L:
	ldr	x19, [sp, #24]
	add	x3, x19, #2
	ldr	x0, [sp, #0]
	ldr	x1, [sp, #8]
	ldr	x2, [sp, #16]
	b	L
L:	bl	_caml_call_gc
L:	b	L
L:	bl	_caml_call_gc
L:	b	L
	.cfi_endproc
	.text
	.align	3
	.globl	_camlHector__Int.find_840
L:
	mov	x16, #36
	stp	x16, x30, [sp, #-16]!
	bl	_caml_call_realloc_stack
	ldp	x16, x30, [sp], #16
_camlHector__Int.find_840:
	.cfi_startproc
	ldr	x16, [x28, #40]
	add	x16, x16, #344
	cmp	sp, x16
	bcc	L
	sub	sp, sp, #32
	.cfi_adjust_cfa_offset	32
	.cfi_offset 30, -8
	str	x30, [sp, #24]
L:
	str	x0, [sp, #0]
	ldr	x0, [x1, #0]
	str	x0, [sp, #8]
	ldr	x1, [x1, #16]
	str	x1, [sp, #16]
	ldr	x4, [x1, #-8]
	lsr	x5, x4, #9
	orr	x6, x5, #1
	cmp	x0, x6
	b.le	L
	bl	_camlHector__Int.violation_686
L:
L:
	orr	x3, xzr, #1
	ldr	x0, [sp, #0]
	ldr	x1, [sp, #8]
	ldr	x2, [sp, #16]
	ldr	x30, [sp, #24]
	add	sp, sp, #32
	.cfi_adjust_cfa_offset	-32
	b	_camlHector__Int.find_835
	.cfi_adjust_cfa_offset	32
	.cfi_endproc
	.text
	.align	3
	.globl	_camlHector__Int.show_845
L:
	mov	x16, #38
	stp	x16, x30, [sp, #-16]!
	bl	_caml_call_realloc_stack
	ldp	x16, x30, [sp], #16
_camlHector__Int.show_845:
	.cfi_startproc
	ldr	x16, [x28, #40]
	add	x16, x16, #360
	cmp	sp, x16
	bcc	L
	sub	sp, sp, #48
	.cfi_adjust_cfa_offset	48
	.cfi_offset 30, -8
	str	x30, [sp, #40]
L:
	str	x0, [sp, #0]
	str	x1, [sp, #8]
	movz	x0, #65, lsl #0
	bl	_camlStdlib__Buffer.create_277
L:
	str	x0, [sp, #16]
	adrp	x1, _camlHector__Int.42@GOTPAGE
	ldr	x1, [x1, _camlHector__Int.42@GOTPAGEOFF]
	bl	_camlStdlib__Buffer.add_string_658
L:
	ldr	x16, [x28, #0]
	sub	x27, x27, #72
	cmp	x27, x16
	b.lo	L
L:	add	x5, x27, #8
	add	x5, x5, #56
	orr	x6, xzr, #1024
	str	x6, [x5, #-8]
	orr	x7, xzr, #3
	str	x7, [x5, #0]
	sub	x8, x5, #56
	str	x8, [sp, #24]
	movz	x9, #6391, lsl #0
	str	x9, [x8, #-8]
	adrp	x10, _camlHector__Int.fun_1142@GOTPAGE
	ldr	x10, [x10, _camlHector__Int.fun_1142@GOTPAGEOFF]
	str	x10, [x8, #0]
	movz	x11, #5, lsl #0
	movk	x11, #256, lsl #48
	str	x11, [x8, #8]
	ldr	x9, [sp, #0]
	str	x9, [x8, #16]
	ldr	x9, [sp, #16]
	str	x9, [x8, #24]
	str	x5, [x8, #32]
	adrp	x12, _camlHector__Int.41@GOTPAGE
	ldr	x12, [x12, _camlHector__Int.41@GOTPAGEOFF]
	str	x12, [x8, #40]
	ldr	x10, [sp, #8]
	ldr	x0, [x10, #0]
	str	x0, [sp, #0]
	ldr	x1, [x10, #16]
	str	x1, [sp, #8]
	ldr	x15, [x1, #-8]
	lsr	x19, x15, #9
	orr	x20, x19, #1
	cmp	x0, x20
	b.le	L
	bl	_camlHector__Int.violation_686
L:
L:
	orr	x21, xzr, #1
	ldr	x11, [sp, #0]
	sub	x23, x11, #2
	cmp	x21, x23
	b.gt	L
	str	x23, [sp, #32]
	str	x21, [sp, #0]
L:
	ldr	x12, [sp, #8]
	add	x24, x12, x21, lsl #2
	ldr	x0, [x24, #-4]
	ldr	x1, [sp, #24]
	ldr	x2, [x1, #0]
	blr	x2
L:
	ldr	x21, [sp, #0]
	mov	x1, x21
	add	x21, x21, #2
	str	x21, [sp, #0]
	ldr	x15, [sp, #32]
	cmp	x1, x15
	b.eq	L
	ldr	x16, [x28, #0]
	cmp	x27, x16
	b.hi	L
	b	L
L:
	adrp	x1, _camlHector__Int.40@GOTPAGE
	ldr	x1, [x1, _camlHector__Int.40@GOTPAGEOFF]
	ldr	x0, [sp, #16]
	bl	_camlStdlib__Buffer.add_string_658
L:
	ldr	x20, [sp, #16]
	.file	3	"buffer.ml"
	ldr	x2, [x20, #8]
	ldr	x5, [x20, #0]
	ldr	x0, [x5, #0]
	orr	x1, xzr, #1
	.file	4	"bytes.ml"
	ldr	x30, [sp, #40]
	add	sp, sp, #48
	.cfi_adjust_cfa_offset	-48
	b	_camlStdlib__Bytes.sub_305
	.cfi_adjust_cfa_offset	48
L:	bl	_caml_call_gc
L:	b	L
L:	bl	_caml_call_gc
L:	b	L
	.cfi_endproc
	.text
	.align	3
	.globl	_camlHector__Int.fun_1142
L:
	mov	x16, #36
	stp	x16, x30, [sp, #-16]!
	bl	_caml_call_realloc_stack
	ldp	x16, x30, [sp], #16
_camlHector__Int.fun_1142:
	.cfi_startproc
	ldr	x16, [x28, #40]
	add	x16, x16, #344
	cmp	sp, x16
	bcc	L
	sub	sp, sp, #32
	.cfi_adjust_cfa_offset	32
	.cfi_offset 30, -8
	str	x30, [sp, #24]
L:
	str	x0, [sp, #0]
	str	x1, [sp, #8]
	ldr	x2, [x1, #32]
	ldr	x3, [x2, #0]
	cmp	x3, #1
	b.ne	L
	adrp	x4, _camlHector__Int.41@GOTPAGE
	ldr	x4, [x4, _camlHector__Int.41@GOTPAGEOFF]
	ldr	x0, [x1, #24]
	mov	x1, x4
	bl	_camlStdlib__Buffer.add_string_658
L:
L:
	ldr	x13, [sp, #8]
	ldr	x1, [x13, #16]
	ldr	x7, [x1, #0]
	ldr	x0, [sp, #0]
	blr	x7
L:
	mov	x1, x0
	ldr	x15, [sp, #8]
	ldr	x0, [x15, #24]
	bl	_camlStdlib__Buffer.add_string_658
L:
	ldr	x19, [sp, #8]
	ldr	x10, [x19, #32]
	orr	x11, xzr, #1
	dmb	ishld
	str	x11, [x10, #0]
	orr	x0, xzr, #1
	ldr	x30, [sp, #24]
	add	sp, sp, #32
	.cfi_adjust_cfa_offset	-32
	ret
	.cfi_adjust_cfa_offset	32
	.cfi_endproc
	.text
	.align	3
	.globl	_camlHector__Int.init_937
L:
	mov	x16, #36
	stp	x16, x30, [sp, #-16]!
	bl	_caml_call_realloc_stack
	ldp	x16, x30, [sp], #16
_camlHector__Int.init_937:
	.cfi_startproc
	ldr	x16, [x28, #40]
	add	x16, x16, #344
	cmp	sp, x16
	bcc	L
	sub	sp, sp, #32
	.cfi_adjust_cfa_offset	32
	.cfi_offset 30, -8
	str	x30, [sp, #24]
L:
	str	x0, [sp, #8]
	str	x1, [sp, #0]
	cmp	x0, #1
	b.ge	L
	bl	_camlHector__Int.length_failure_679
L:
L:
	ldr	x0, [sp, #8]
	ldr	x1, [sp, #0]
	bl	_camlHector__Int.init_598
L:
	ldr	x16, [x28, #0]
	sub	x27, x27, #32
	cmp	x27, x16
	b.lo	L
L:	add	x3, x27, #8
	orr	x4, xzr, #3072
	str	x4, [x3, #-8]
	ldr	x7, [sp, #8]
	str	x7, [x3, #0]
	str	x7, [x3, #8]
	str	x0, [x3, #16]
	mov	x0, x3
	ldr	x30, [sp, #24]
	add	sp, sp, #32
	.cfi_adjust_cfa_offset	-32
	ret
	.cfi_adjust_cfa_offset	32
L:	bl	_caml_call_gc
L:	b	L
	.cfi_endproc
	.text
	.align	3
	.globl	_camlHector__Int.get_940
L:
	mov	x16, #36
	stp	x16, x30, [sp, #-16]!
	bl	_caml_call_realloc_stack
	ldp	x16, x30, [sp], #16
_camlHector__Int.get_940:
	.cfi_startproc
	ldr	x16, [x28, #40]
	add	x16, x16, #344
	cmp	sp, x16
	bcc	L
	sub	sp, sp, #32
	.cfi_adjust_cfa_offset	32
	.cfi_offset 30, -8
	str	x30, [sp, #24]
L:
	str	x0, [sp, #0]
	str	x1, [sp, #8]
	cmp	x1, #1
	b.lt	L
	ldr	x2, [x0, #0]
	cmp	x1, x2
	b.lt	L
L:
	bl	_camlHector__Int.index_failure_682
L:
L:
	ldr	x6, [sp, #0]
	ldr	x3, [x6, #16]
	ldr	x7, [sp, #8]
	add	x4, x3, x7, lsl #2
	ldr	x0, [x4, #-4]
	ldr	x30, [sp, #24]
	add	sp, sp, #32
	.cfi_adjust_cfa_offset	-32
	ret
	.cfi_adjust_cfa_offset	32
	.cfi_endproc
	.text
	.align	3
	.globl	_camlHector__Int.set_944
L:
	mov	x16, #36
	stp	x16, x30, [sp, #-16]!
	bl	_caml_call_realloc_stack
	ldp	x16, x30, [sp], #16
_camlHector__Int.set_944:
	.cfi_startproc
	ldr	x16, [x28, #40]
	add	x16, x16, #344
	cmp	sp, x16
	bcc	L
	sub	sp, sp, #32
	.cfi_adjust_cfa_offset	32
	.cfi_offset 30, -8
	str	x30, [sp, #24]
L:
	str	x0, [sp, #0]
	str	x1, [sp, #8]
	str	x2, [sp, #16]
	cmp	x1, #1
	b.lt	L
	ldr	x3, [x0, #0]
	cmp	x1, x3
	b.lt	L
L:
	bl	_camlHector__Int.index_failure_682
L:
L:
	ldr	x7, [sp, #0]
	ldr	x4, [x7, #16]
	ldr	x8, [sp, #8]
	add	x5, x4, x8, lsl #2
	ldr	x9, [sp, #16]
	dmb	ishld
	str	x9, [x5, #-4]
	orr	x0, xzr, #1
	ldr	x30, [sp, #24]
	add	sp, sp, #32
	.cfi_adjust_cfa_offset	-32
	ret
	.cfi_adjust_cfa_offset	32
	.cfi_endproc
	.text
	.align	3
	.globl	_camlHector__Int.truncate_949
L:
	mov	x16, #36
	stp	x16, x30, [sp, #-16]!
	bl	_caml_call_realloc_stack
	ldp	x16, x30, [sp], #16
_camlHector__Int.truncate_949:
	.cfi_startproc
	ldr	x16, [x28, #40]
	add	x16, x16, #344
	cmp	sp, x16
	bcc	L
	sub	sp, sp, #32
	.cfi_adjust_cfa_offset	32
	.cfi_offset 30, -8
	str	x30, [sp, #24]
L:
	str	x0, [sp, #0]
	str	x1, [sp, #8]
	cmp	x1, #1
	b.ge	L
	mov	x0, x1
	bl	_camlHector__Int.length_failure_679
L:
L:
	ldr	x5, [sp, #0]
	ldr	x2, [x5, #0]
	ldr	x6, [sp, #8]
	cmp	x6, x2
	b.ge	L
	dmb	ishld
	str	x6, [x5, #0]
	orr	x0, xzr, #1
	ldr	x30, [sp, #24]
	add	sp, sp, #32
	.cfi_adjust_cfa_offset	-32
	ret
	.cfi_adjust_cfa_offset	32
L:
	orr	x0, xzr, #1
	ldr	x30, [sp, #24]
	add	sp, sp, #32
	.cfi_adjust_cfa_offset	-32
	ret
	.cfi_adjust_cfa_offset	32
	.cfi_endproc
	.text
	.align	3
	.globl	_camlHector__Int.set_capacity_952
L:
	mov	x16, #36
	stp	x16, x30, [sp, #-16]!
	bl	_caml_call_realloc_stack
	ldp	x16, x30, [sp], #16
_camlHector__Int.set_capacity_952:
	.cfi_startproc
	ldr	x16, [x28, #40]
	add	x16, x16, #344
	cmp	sp, x16
	bcc	L
	sub	sp, sp, #32
	.cfi_adjust_cfa_offset	32
	.cfi_offset 30, -8
	str	x30, [sp, #24]
L:
	str	x0, [sp, #16]
	str	x1, [sp, #8]
	cmp	x1, #1
	b.ge	L
	mov	x0, x1
	bl	_camlHector__Int.capacity_failure_676
L:
L:
	ldr	x15, [sp, #16]
	ldr	x2, [x15, #8]
	ldr	x1, [sp, #8]
	cmp	x1, x2
	b.ge	L
	dmb	ishld
	str	x1, [x15, #8]
	ldr	x0, [x15, #0]
	ldr	x5, [x15, #16]
	ldr	x6, [x5, #-8]
	lsr	x7, x6, #9
	orr	x8, x7, #1
	cmp	x8, #1
	b.le	L
	str	x5, [sp, #0]
	str	x1, [sp, #8]
	str	x15, [sp, #16]
	bl	_camlStdlib.min_44
L:
	ldr	x20, [sp, #16]
	dmb	ishld
	str	x0, [x20, #0]
	orr	x1, xzr, #1
	ldr	x0, [sp, #0]
	ldr	x2, [sp, #8]
	bl	_camlHector__Int.sub_651
L:
	mov	x1, x0
	ldr	x23, [sp, #16]
	add	x0, x23, #16
	str	x29, [sp, -16]!
	mov	x29, sp
	.cfi_remember_state
	.cfi_def_cfa_register 29
	ldr	x16, [x28, 64]
	mov	sp, x16
	bl	_caml_modify
	mov	sp, x29
	ldr	x29, [sp], 16
	.cfi_restore_state
	orr	x0, xzr, #1
	ldr	x30, [sp, #24]
	add	sp, sp, #32
	.cfi_adjust_cfa_offset	-32
	ret
	.cfi_adjust_cfa_offset	32
L:
	orr	x0, xzr, #1
	ldr	x30, [sp, #24]
	add	sp, sp, #32
	.cfi_adjust_cfa_offset	-32
	ret
	.cfi_adjust_cfa_offset	32
L:
	cmp	x1, x2
	b.le	L
	mov	x0, x15
	ldr	x30, [sp, #24]
	add	sp, sp, #32
	.cfi_adjust_cfa_offset	-32
	b	_camlHector__Int.set_higher_capacity_777
	.cfi_adjust_cfa_offset	32
L:
	orr	x0, xzr, #1
	ldr	x30, [sp, #24]
	add	sp, sp, #32
	.cfi_adjust_cfa_offset	-32
	ret
	.cfi_adjust_cfa_offset	32
	.cfi_endproc
	.text
	.align	3
	.globl	_camlHector__Int.ensure_capacity_955
L:
	mov	x16, #36
	stp	x16, x30, [sp, #-16]!
	bl	_caml_call_realloc_stack
	ldp	x16, x30, [sp], #16
_camlHector__Int.ensure_capacity_955:
	.cfi_startproc
	ldr	x16, [x28, #40]
	add	x16, x16, #344
	cmp	sp, x16
	bcc	L
	sub	sp, sp, #32
	.cfi_adjust_cfa_offset	32
	.cfi_offset 30, -8
	str	x30, [sp, #24]
L:
	str	x0, [sp, #8]
	str	x1, [sp, #0]
	cmp	x1, #1
	b.ge	L
	mov	x0, x1
	bl	_camlHector__Int.capacity_failure_676
L:
L:
	ldr	x15, [sp, #8]
	ldr	x2, [x15, #8]
	ldr	x19, [sp, #0]
	cmp	x19, x2
	b.le	L
	str	x19, [sp, #0]
	str	x15, [sp, #8]
	cmp	x2, #1025
	b.gt	L
	movn	x4, #0
	add	x1, x4, x2, lsl #1
	b	L
L:
	asr	x6, x2, #1
	lsr	x7, x6, #63
	add	x8, x6, x7
	orr	x9, x8, #1
	add	x10, x2, x9
	sub	x1, x10, #1
L:
	movz	x0, #17, lsl #0
	bl	_camlStdlib.max_48
L:
	ldr	x1, [sp, #0]
	bl	_camlStdlib.max_48
L:
	mov	x1, x0
	ldr	x0, [sp, #8]
	ldr	x30, [sp, #24]
	add	sp, sp, #32
	.cfi_adjust_cfa_offset	-32
	b	_camlHector__Int.set_higher_capacity_777
	.cfi_adjust_cfa_offset	32
L:
	orr	x0, xzr, #1
	ldr	x30, [sp, #24]
	add	sp, sp, #32
	.cfi_adjust_cfa_offset	-32
	ret
	.cfi_adjust_cfa_offset	32
	.cfi_endproc
	.text
	.align	3
	.globl	_camlHector__Int.ensure_extra_capacity_958
L:
	mov	x16, #36
	stp	x16, x30, [sp, #-16]!
	bl	_caml_call_realloc_stack
	ldp	x16, x30, [sp], #16
_camlHector__Int.ensure_extra_capacity_958:
	.cfi_startproc
	ldr	x16, [x28, #40]
	add	x16, x16, #344
	cmp	sp, x16
	bcc	L
	sub	sp, sp, #32
	.cfi_adjust_cfa_offset	32
	.cfi_offset 30, -8
	str	x30, [sp, #24]
L:
	str	x0, [sp, #8]
	str	x1, [sp, #0]
	cmp	x1, #1
	b.ge	L
	mov	x0, x1
	bl	_camlHector__Int.capacity_failure_676
L:
L:
	ldr	x21, [sp, #8]
	ldr	x2, [x21, #0]
	ldr	x22, [sp, #0]
	add	x3, x2, x22
	sub	x4, x3, #1
	ldr	x5, [x21, #8]
	cmp	x4, x5
	b.le	L
	str	x4, [sp, #0]
	str	x21, [sp, #8]
	cmp	x5, #1025
	b.gt	L
	movn	x7, #0
	add	x1, x7, x5, lsl #1
	b	L
L:
	asr	x9, x5, #1
	lsr	x10, x9, #63
	add	x11, x9, x10
	orr	x12, x11, #1
	add	x13, x5, x12
	sub	x1, x13, #1
L:
	movz	x0, #17, lsl #0
	bl	_camlStdlib.max_48
L:
	ldr	x1, [sp, #0]
	bl	_camlStdlib.max_48
L:
	mov	x1, x0
	ldr	x0, [sp, #8]
	ldr	x30, [sp, #24]
	add	sp, sp, #32
	.cfi_adjust_cfa_offset	-32
	b	_camlHector__Int.set_higher_capacity_777
	.cfi_adjust_cfa_offset	32
L:
	orr	x0, xzr, #1
	ldr	x30, [sp, #24]
	add	sp, sp, #32
	.cfi_adjust_cfa_offset	-32
	ret
	.cfi_adjust_cfa_offset	32
	.cfi_endproc
	.text
	.align	3
	.globl	_camlHector__Int.unsafe_initialize_int_array_372
_camlHector__Int.unsafe_initialize_int_array_372:
	.file	5	"Int.cppo.ml"
	.cfi_startproc
	sub	sp, sp, #16
	.cfi_adjust_cfa_offset	16
	.cfi_offset 30, -8
	str	x30, [sp, #8]
L:
	orr	x2, xzr, #-7
	add	x2, x2, x1, lsl #3
	orr	x3, xzr, #3
	orr	x1, xzr, #1
	adrp	x8, _caml_fill_bytes@GOTPAGE
	ldr	x8, [x8, _caml_fill_bytes@GOTPAGEOFF]
	bl	_caml_c_call
L:
	ldr	x30, [sp, #8]
	add	sp, sp, #16
	.cfi_adjust_cfa_offset	-16
	ret
	.cfi_adjust_cfa_offset	16
	.cfi_endproc
	.text
	.align	3
	.globl	_camlHector__Int.make_492
L:
	mov	x16, #36
	stp	x16, x30, [sp, #-16]!
	bl	_caml_call_realloc_stack
	ldp	x16, x30, [sp], #16
_camlHector__Int.make_492:
	.cfi_startproc
	ldr	x16, [x28, #40]
	add	x16, x16, #344
	cmp	sp, x16
	bcc	L
	sub	sp, sp, #32
	.cfi_adjust_cfa_offset	32
	.cfi_offset 30, -8
	str	x30, [sp, #24]
L:
	mov	x1, x0
	str	x1, [sp, #0]
	movz	x0, #503, lsl #0
	adrp	x8, _caml_obj_block@GOTPAGE
	ldr	x8, [x8, _caml_obj_block@GOTPAGEOFF]
	bl	_caml_c_call
L:
	str	x0, [sp, #8]
	ldr	x1, [sp, #0]
	bl	_camlHector__Int.unsafe_initialize_int_array_372
L:
	ldr	x0, [sp, #8]
	ldr	x30, [sp, #24]
	add	sp, sp, #32
	.cfi_adjust_cfa_offset	-32
	ret
	.cfi_adjust_cfa_offset	32
	.cfi_endproc
	.text
	.align	3
	.globl	_camlHector__Int.init_598
L:
	mov	x16, #38
	stp	x16, x30, [sp, #-16]!
	bl	_caml_call_realloc_stack
	ldp	x16, x30, [sp], #16
_camlHector__Int.init_598:
	.cfi_startproc
	ldr	x16, [x28, #40]
	add	x16, x16, #360
	cmp	sp, x16
	bcc	L
	sub	sp, sp, #48
	.cfi_adjust_cfa_offset	48
	.cfi_offset 30, -8
	str	x30, [sp, #40]
L:
	cmp	x0, #1
	b.ne	L
	adrp	x0, _camlHector__Int.1@GOTPAGE
	ldr	x0, [x0, _camlHector__Int.1@GOTPAGEOFF]
	ldr	x30, [sp, #40]
	add	sp, sp, #48
	.cfi_adjust_cfa_offset	-48
	ret
	.cfi_adjust_cfa_offset	48
L:
	str	x1, [sp, #16]
	str	x0, [sp, #8]
	orr	x0, xzr, #1
	ldr	x3, [x1, #0]
	blr	x3
L:
	mov	x1, x0
	str	x1, [sp, #0]
	ldr	x0, [sp, #8]
	bl	_camlHector__Int.make_492
L:
	mov	x5, x0
	ldr	x19, [sp, #0]
	dmb	ishld
	str	x19, [x5, #0]
	orr	x0, xzr, #3
	ldr	x20, [sp, #8]
	sub	x8, x20, #2
	cmp	x0, x8
	b.gt	L
	str	x8, [sp, #24]
	str	x0, [sp, #0]
	str	x5, [sp, #8]
L:
	ldr	x1, [sp, #16]
	ldr	x9, [x1, #0]
	blr	x9
L:
	mov	x10, x0
	ldr	x0, [sp, #0]
	ldr	x5, [sp, #8]
	add	x11, x5, x0, lsl #2
	dmb	ishld
	str	x10, [x11, #-4]
	mov	x12, x0
	add	x0, x0, #2
	str	x0, [sp, #0]
	ldr	x24, [sp, #24]
	cmp	x12, x24
	b.eq	L
	ldr	x16, [x28, #0]
	cmp	x27, x16
	b.hi	L
	b	L
L:
	mov	x0, x5
	ldr	x30, [sp, #40]
	add	sp, sp, #48
	.cfi_adjust_cfa_offset	-48
	ret
	.cfi_adjust_cfa_offset	48
L:	bl	_caml_call_gc
L:	b	L
	.cfi_endproc
	.text
	.align	3
	.globl	_camlHector__Int.violation_605
L:
	mov	x16, #36
	stp	x16, x30, [sp, #-16]!
	bl	_caml_call_realloc_stack
	ldp	x16, x30, [sp], #16
_camlHector__Int.violation_605:
	.cfi_startproc
	ldr	x16, [x28, #40]
	add	x16, x16, #344
	cmp	sp, x16
	bcc	L
	sub	sp, sp, #32
	.cfi_adjust_cfa_offset	32
	.cfi_offset 30, -8
	str	x30, [sp, #24]
L:
	ldr	x16, [x28, #0]
	cmp	x27, x16
	b.ls	L
L:
	ldr	x3, [x0, #-8]
	lsr	x4, x3, #9
	orr	x5, x4, #1
	str	x5, [sp, #16]
	str	x2, [sp, #8]
	str	x1, [sp, #0]
	adrp	x1, _camlHector__Int.12@GOTPAGE
	ldr	x1, [x1, _camlHector__Int.12@GOTPAGEOFF]
	adrp	x9, _camlStdlib@GOTPAGE
	ldr	x9, [x9, _camlStdlib@GOTPAGEOFF]
	ldr	x0, [x9, #0]
	bl	_camlStdlib__Printf.ksprintf_447
L:
	mov	x3, x0
	ldr	x0, [sp, #0]
	ldr	x1, [sp, #8]
	ldr	x2, [sp, #16]
	ldr	x30, [sp, #24]
	add	sp, sp, #32
	.cfi_adjust_cfa_offset	-32
	b	_caml_apply3
	.cfi_adjust_cfa_offset	32
L:	bl	_caml_call_gc
L:	b	L
	.cfi_endproc
	.text
	.align	3
	.globl	_camlHector__Int.validate_646
_camlHector__Int.validate_646:
	.cfi_startproc
L:
	cmp	x2, #1
	b.lt	L
	cmp	x1, #1
	b.lt	L
	ldr	x3, [x0, #-8]
	lsr	x4, x3, #9
	orr	x5, x4, #1
	add	x6, x1, x2
	sub	x7, x6, #1
	cmp	x7, x5
	b.le	L
L:
	b	_camlHector__Int.violation_605
L:
	orr	x0, xzr, #1
	ret
	.cfi_endproc
	.text
	.align	3
	.globl	_camlHector__Int.sub_651
L:
	mov	x16, #38
	stp	x16, x30, [sp, #-16]!
	bl	_caml_call_realloc_stack
	ldp	x16, x30, [sp], #16
_camlHector__Int.sub_651:
	.cfi_startproc
	ldr	x16, [x28, #40]
	add	x16, x16, #360
	cmp	sp, x16
	bcc	L
	sub	sp, sp, #48
	.cfi_adjust_cfa_offset	48
	.cfi_offset 30, -8
	str	x30, [sp, #40]
L:
	str	x0, [sp, #24]
	str	x1, [sp, #16]
	str	x2, [sp, #8]
	cmp	x2, #1
	b.lt	L
	cmp	x1, #1
	b.lt	L
	ldr	x3, [x0, #-8]
	lsr	x4, x3, #9
	orr	x5, x4, #1
	add	x6, x1, x2
	sub	x7, x6, #1
	cmp	x7, x5
	b.le	L
L:
	bl	_camlHector__Int.violation_605
L:
L:
	ldr	x0, [sp, #8]
	cmp	x0, #1
	b.ne	L
	adrp	x0, _camlHector__Int.1@GOTPAGE
	ldr	x0, [x0, _camlHector__Int.1@GOTPAGEOFF]
	ldr	x30, [sp, #40]
	add	sp, sp, #48
	.cfi_adjust_cfa_offset	-48
	ret
	.cfi_adjust_cfa_offset	48
L:
	str	x0, [sp, #8]
	ldr	x25, [sp, #16]
	ldr	x1, [sp, #24]
	add	x8, x1, x25, lsl #2
	ldr	x1, [x8, #-4]
	str	x1, [sp, #0]
	bl	_camlHector__Int.make_492
L:
	ldr	x1, [sp, #0]
	dmb	ishld
	str	x1, [x0, #0]
	orr	x11, xzr, #3
	ldr	x2, [sp, #8]
	sub	x13, x2, #2
	cmp	x11, x13
	b.gt	L
L:
	add	x14, x0, x11, lsl #2
	ldr	x3, [sp, #16]
	add	x15, x3, x11
	ldr	x4, [sp, #24]
	add	x19, x4, x15, lsl #2
	ldr	x20, [x19, #-8]
	dmb	ishld
	str	x20, [x14, #-4]
	mov	x21, x11
	add	x11, x11, #2
	cmp	x21, x13
	b.eq	L
	ldr	x16, [x28, #0]
	cmp	x27, x16
	b.hi	L
	b	L
L:
	ldr	x30, [sp, #40]
	add	sp, sp, #48
	.cfi_adjust_cfa_offset	-48
	ret
	.cfi_adjust_cfa_offset	48
L:	bl	_caml_call_gc
L:	b	L
	.cfi_endproc
	.text
	.align	3
	.globl	_camlHector__Int.blit_658
L:
	mov	x16, #38
	stp	x16, x30, [sp, #-16]!
	bl	_caml_call_realloc_stack
	ldp	x16, x30, [sp], #16
_camlHector__Int.blit_658:
	.cfi_startproc
	ldr	x16, [x28, #40]
	add	x16, x16, #360
	cmp	sp, x16
	bcc	L
	sub	sp, sp, #48
	.cfi_adjust_cfa_offset	48
	.cfi_offset 30, -8
	str	x30, [sp, #40]
L:
	str	x0, [sp, #8]
	str	x1, [sp, #0]
	str	x2, [sp, #32]
	str	x3, [sp, #24]
	mov	x2, x4
	str	x2, [sp, #16]
	cmp	x2, #1
	b.lt	L
	cmp	x1, #1
	b.lt	L
	ldr	x7, [x0, #-8]
	lsr	x8, x7, #9
	orr	x9, x8, #1
	add	x10, x1, x2
	sub	x11, x10, #1
	cmp	x11, x9
	b.le	L
L:
	bl	_camlHector__Int.violation_605
L:
L:
	ldr	x2, [sp, #16]
	cmp	x2, #1
	b.lt	L
	ldr	x15, [sp, #24]
	cmp	x15, #1
	b.lt	L
	ldr	x14, [sp, #32]
	ldr	x12, [x14, #-8]
	lsr	x13, x12, #9
	orr	x14, x13, #1
	add	x15, x15, x2
	sub	x19, x15, #1
	cmp	x19, x14
	b.le	L
L:
	ldr	x0, [sp, #32]
	ldr	x1, [sp, #24]
	bl	_camlHector__Int.violation_605
L:
L:
	orr	x19, xzr, #1
	ldr	x20, [sp, #16]
	sub	x20, x20, #2
	cmp	x19, x20
	b.gt	L
L:
	ldr	x21, [sp, #0]
	add	x21, x21, x19
	sub	x22, x21, #1
	ldr	x24, [sp, #8]
	ldrb	w23, [x24, #-8]
	cmp	x23, #254
	b.eq	L
	add	x24, x24, x22, lsl #2
	ldr	x1, [x24, #-4]
	b	L
L:
	ldr	x16, [x28, #0]
	sub	x27, x27, #16
	cmp	x27, x16
	b.lo	L
L:	add	x1, x27, #8
	movz	x2, #1277, lsl #0
	str	x2, [x1, #-8]
	add	x2, x24, x22, lsl #2
	ldr	d0, [x2, #-4]
	str	d0, [x1, #0]
L:
	ldr	x23, [sp, #24]
	add	x3, x23, x19
	sub	x4, x3, #1
	ldr	x24, [sp, #32]
	ldrb	w5, [x24, #-8]
	cmp	x5, #254
	b.eq	L
	add	x6, x24, x4, lsl #2
	sub	x0, x6, #4
	str	x29, [sp, -16]!
	mov	x29, sp
	.cfi_remember_state
	.cfi_def_cfa_register 29
	ldr	x16, [x28, 64]
	mov	sp, x16
	bl	_caml_modify
	mov	sp, x29
	ldr	x29, [sp], 16
	.cfi_restore_state
	b	L
L:
	add	x8, x24, x4, lsl #2
	ldr	d1, [x1, #0]
	str	d1, [x8, #-4]
L:
	mov	x9, x19
	add	x19, x19, #2
	cmp	x9, x20
	b.eq	L
	ldr	x16, [x28, #0]
	cmp	x27, x16
	b.hi	L
	b	L
L:
	orr	x0, xzr, #1
	ldr	x30, [sp, #40]
	add	sp, sp, #48
	.cfi_adjust_cfa_offset	-48
	ret
	.cfi_adjust_cfa_offset	48
L:	bl	_caml_call_gc
L:	b	L
L:	bl	_caml_call_gc
L:	b	L
	.cfi_endproc
	.data
	.align	3
	.quad	4868
	.globl	_camlHector__Int.9
_camlHector__Int.9:
	.quad	1
	.quad	1
	.quad	1
	.quad	_camlHector__Int.8
	.data
	.align	3
	.quad	2827
	.globl	_camlHector__Int.8
_camlHector__Int.8:
	.quad	_camlHector__Int.3
	.quad	_camlHector__Int.7
	.data
	.align	3
	.quad	4868
	.globl	_camlHector__Int.7
_camlHector__Int.7:
	.quad	1
	.quad	1
	.quad	1
	.quad	_camlHector__Int.6
	.data
	.align	3
	.quad	2827
	.globl	_camlHector__Int.6
_camlHector__Int.6:
	.quad	_camlHector__Int.4
	.quad	_camlHector__Int.5
	.data
	.align	3
	.quad	4868
	.globl	_camlHector__Int.5
_camlHector__Int.5:
	.quad	1
	.quad	1
	.quad	1
	.quad	1
	.data
	.align	3
	.quad	2044
	.globl	_camlHector__Int.42
_camlHector__Int.42:
	.ascii  "[|"
	.space	5
	.byte	5
	.data
	.align	3
	.quad	2044
	.globl	_camlHector__Int.41
_camlHector__Int.41:
	.ascii  "; "
	.space	5
	.byte	5
	.data
	.align	3
	.quad	2044
	.globl	_camlHector__Int.40
_camlHector__Int.40:
	.ascii  "|]"
	.space	5
	.byte	5
	.data
	.align	3
	.quad	5116
	.globl	_camlHector__Int.4
_camlHector__Int.4:
	.ascii  ") in an array of length "
	.space	7
	.byte	7
	.data
	.align	3
	.quad	2816
	.globl	_camlHector__Int.39
_camlHector__Int.39:
	.quad	_camlHector__Int.37
	.quad	_camlHector__Int.38
	.data
	.align	3
	.quad	9212
	.globl	_camlHector__Int.38
_camlHector__Int.38:
	.ascii  "length is %d, but data array has length %d (racy access?)"
	.space	6
	.byte	6
	.data
	.align	3
	.quad	2827
	.globl	_camlHector__Int.37
_camlHector__Int.37:
	.quad	_camlHector__Int.30
	.quad	_camlHector__Int.36
	.data
	.align	3
	.quad	4868
	.globl	_camlHector__Int.36
_camlHector__Int.36:
	.quad	1
	.quad	1
	.quad	1
	.quad	_camlHector__Int.35
	.data
	.align	3
	.quad	2827
	.globl	_camlHector__Int.35
_camlHector__Int.35:
	.quad	_camlHector__Int.31
	.quad	_camlHector__Int.34
	.data
	.align	3
	.quad	4868
	.globl	_camlHector__Int.34
_camlHector__Int.34:
	.quad	1
	.quad	1
	.quad	1
	.quad	_camlHector__Int.33
	.data
	.align	3
	.quad	2827
	.globl	_camlHector__Int.33
_camlHector__Int.33:
	.quad	_camlHector__Int.32
	.quad	1
	.data
	.align	3
	.quad	3068
	.globl	_camlHector__Int.32
_camlHector__Int.32:
	.ascii  " (racy access?)"
	.byte	0
	.data
	.align	3
	.quad	5116
	.globl	_camlHector__Int.31
_camlHector__Int.31:
	.ascii  ", but data array has length "
	.space	3
	.byte	3
	.data
	.align	3
	.quad	3068
	.globl	_camlHector__Int.30
_camlHector__Int.30:
	.ascii  "length is "
	.space	5
	.byte	5
	.data
	.align	3
	.quad	2044
	.globl	_camlHector__Int.3
_camlHector__Int.3:
	.ascii  ", "
	.space	5
	.byte	5
	.data
	.align	3
	.quad	2816
	.globl	_camlHector__Int.29
_camlHector__Int.29:
	.quad	_camlHector__Int.27
	.quad	_camlHector__Int.28
	.data
	.align	3
	.quad	6140
	.globl	_camlHector__Int.28
_camlHector__Int.28:
	.ascii  "index %d is out of range [0, %d)"
	.space	7
	.byte	7
	.data
	.align	3
	.quad	2827
	.globl	_camlHector__Int.27
_camlHector__Int.27:
	.quad	_camlHector__Int.21
	.quad	_camlHector__Int.26
	.data
	.align	3
	.quad	4868
	.globl	_camlHector__Int.26
_camlHector__Int.26:
	.quad	1
	.quad	1
	.quad	1
	.quad	_camlHector__Int.25
	.data
	.align	3
	.quad	2827
	.globl	_camlHector__Int.25
_camlHector__Int.25:
	.quad	_camlHector__Int.22
	.quad	_camlHector__Int.24
	.data
	.align	3
	.quad	4868
	.globl	_camlHector__Int.24
_camlHector__Int.24:
	.quad	1
	.quad	1
	.quad	1
	.quad	_camlHector__Int.23
	.data
	.align	3
	.quad	2828
	.globl	_camlHector__Int.23
_camlHector__Int.23:
	.quad	83
	.quad	1
	.data
	.align	3
	.quad	4092
	.globl	_camlHector__Int.22
_camlHector__Int.22:
	.ascii  " is out of range [0, "
	.space	2
	.byte	2
	.data
	.align	3
	.quad	2044
	.globl	_camlHector__Int.21
_camlHector__Int.21:
	.ascii  "index "
	.space	1
	.byte	1
	.data
	.align	3
	.quad	2816
	.globl	_camlHector__Int.20
_camlHector__Int.20:
	.quad	_camlHector__Int.18
	.quad	_camlHector__Int.19
	.data
	.align	3
	.quad	5116
	.globl	_camlHector__Int.2
_camlHector__Int.2:
	.ascii  "invalid offset/length pair ("
	.space	3
	.byte	3
	.data
	.align	3
	.quad	4092
	.globl	_camlHector__Int.19
_camlHector__Int.19:
	.ascii  "invalid length %d"
	.space	6
	.byte	6
	.data
	.align	3
	.quad	2827
	.globl	_camlHector__Int.18
_camlHector__Int.18:
	.quad	_camlHector__Int.17
	.quad	_camlHector__Int.5
	.data
	.align	3
	.quad	3068
	.globl	_camlHector__Int.17
_camlHector__Int.17:
	.ascii  "invalid length "
	.byte	0
	.data
	.align	3
	.quad	2816
	.globl	_camlHector__Int.16
_camlHector__Int.16:
	.quad	_camlHector__Int.14
	.quad	_camlHector__Int.15
	.data
	.align	3
	.quad	4092
	.globl	_camlHector__Int.15
_camlHector__Int.15:
	.ascii  "invalid capacity %d"
	.space	4
	.byte	4
	.data
	.align	3
	.quad	2827
	.globl	_camlHector__Int.14
_camlHector__Int.14:
	.quad	_camlHector__Int.13
	.quad	_camlHector__Int.5
	.data
	.align	3
	.quad	4092
	.globl	_camlHector__Int.13
_camlHector__Int.13:
	.ascii  "invalid capacity "
	.space	6
	.byte	6
	.data
	.align	3
	.quad	2816
	.globl	_camlHector__Int.12
_camlHector__Int.12:
	.quad	_camlHector__Int.10
	.quad	_camlHector__Int.11
	.data
	.align	3
	.quad	9212
	.globl	_camlHector__Int.11
_camlHector__Int.11:
	.ascii  "invalid offset/length pair (%d, %d) in an array of length %d"
	.space	3
	.byte	3
	.data
	.align	3
	.quad	2827
	.globl	_camlHector__Int.10
_camlHector__Int.10:
	.quad	_camlHector__Int.2
	.quad	_camlHector__Int.9
	.data
	.align	3
	.quad	768
	.globl	_camlHector__Int.1
	.globl	_camlHector__Int.1
_camlHector__Int.1:
	.text
	.align	3
	.globl	_camlHector__Int.entry
_camlHector__Int.entry:
	.cfi_startproc
	sub	sp, sp, #16
	.cfi_adjust_cfa_offset	16
	.cfi_offset 30, -8
	str	x30, [sp, #8]
L:
	adrp	x1, _camlHector__Int.91@GOTPAGE
	ldr	x1, [x1, _camlHector__Int.91@GOTPAGEOFF]
	adrp	x2, _camlHector__Int@GOTPAGE
	ldr	x2, [x2, _camlHector__Int@GOTPAGEOFF]
	add	x0, x2, #232
	str	x29, [sp, -16]!
	mov	x29, sp
	.cfi_remember_state
	.cfi_def_cfa_register 29
	ldr	x16, [x28, 64]
	mov	sp, x16
	bl	_caml_initialize
	mov	sp, x29
	ldr	x29, [sp], 16
	.cfi_restore_state
	adrp	x1, _camlHector__Int.90@GOTPAGE
	ldr	x1, [x1, _camlHector__Int.90@GOTPAGEOFF]
	adrp	x4, _camlHector__Int@GOTPAGE
	ldr	x4, [x4, _camlHector__Int@GOTPAGEOFF]
	add	x0, x4, #400
	str	x29, [sp, -16]!
	mov	x29, sp
	.cfi_remember_state
	.cfi_def_cfa_register 29
	ldr	x16, [x28, 64]
	mov	sp, x16
	bl	_caml_initialize
	mov	sp, x29
	ldr	x29, [sp], 16
	.cfi_restore_state
	bl	_caml_alloc1
L:	add	x1, x27, #8
	orr	x7, xzr, #1024
	str	x7, [x1, #-8]
	adrp	x8, _camlHector__Int@GOTPAGE
	ldr	x8, [x8, _camlHector__Int@GOTPAGEOFF]
	ldr	x9, [x8, #400]
	str	x9, [x1, #0]
	add	x0, x8, #240
	str	x29, [sp, -16]!
	mov	x29, sp
	.cfi_remember_state
	.cfi_def_cfa_register 29
	ldr	x16, [x28, 64]
	mov	sp, x16
	bl	_caml_initialize
	mov	sp, x29
	ldr	x29, [sp], 16
	.cfi_restore_state
	adrp	x12, _camlHector__Int@GOTPAGE
	ldr	x12, [x12, _camlHector__Int@GOTPAGEOFF]
	ldr	x13, [x12, #240]
	ldr	x1, [x13, #0]
	add	x0, x12, #408
	str	x29, [sp, -16]!
	mov	x29, sp
	.cfi_remember_state
	.cfi_def_cfa_register 29
	ldr	x16, [x28, 64]
	mov	sp, x16
	bl	_caml_initialize
	mov	sp, x29
	ldr	x29, [sp], 16
	.cfi_restore_state
	adrp	x1, _camlHector__Int.89@GOTPAGE
	ldr	x1, [x1, _camlHector__Int.89@GOTPAGEOFF]
	adrp	x21, _camlHector__Int@GOTPAGE
	ldr	x21, [x21, _camlHector__Int@GOTPAGEOFF]
	add	x0, x21, #416
	str	x29, [sp, -16]!
	mov	x29, sp
	.cfi_remember_state
	.cfi_def_cfa_register 29
	ldr	x16, [x28, 64]
	mov	sp, x16
	bl	_caml_initialize
	mov	sp, x29
	ldr	x29, [sp], 16
	.cfi_restore_state
	orr	x1, xzr, #3
	adrp	x24, _camlHector__Int@GOTPAGE
	ldr	x24, [x24, _camlHector__Int@GOTPAGEOFF]
	add	x0, x24, #424
	str	x29, [sp, -16]!
	mov	x29, sp
	.cfi_remember_state
	.cfi_def_cfa_register 29
	ldr	x16, [x28, 64]
	mov	sp, x16
	bl	_caml_initialize
	mov	sp, x29
	ldr	x29, [sp], 16
	.cfi_restore_state
	adrp	x1, _camlHector__Int.88@GOTPAGE
	ldr	x1, [x1, _camlHector__Int.88@GOTPAGEOFF]
	adrp	x2, _camlHector__Int@GOTPAGE
	ldr	x2, [x2, _camlHector__Int@GOTPAGEOFF]
	add	x0, x2, #432
	str	x29, [sp, -16]!
	mov	x29, sp
	.cfi_remember_state
	.cfi_def_cfa_register 29
	ldr	x16, [x28, 64]
	mov	sp, x16
	bl	_caml_initialize
	mov	sp, x29
	ldr	x29, [sp], 16
	.cfi_restore_state
	adrp	x1, _camlHector__Int.87@GOTPAGE
	ldr	x1, [x1, _camlHector__Int.87@GOTPAGEOFF]
	adrp	x4, _camlHector__Int@GOTPAGE
	ldr	x4, [x4, _camlHector__Int@GOTPAGEOFF]
	add	x0, x4, #440
	str	x29, [sp, -16]!
	mov	x29, sp
	.cfi_remember_state
	.cfi_def_cfa_register 29
	ldr	x16, [x28, 64]
	mov	sp, x16
	bl	_caml_initialize
	mov	sp, x29
	ldr	x29, [sp], 16
	.cfi_restore_state
	adrp	x1, _camlHector__Int.86@GOTPAGE
	ldr	x1, [x1, _camlHector__Int.86@GOTPAGEOFF]
	adrp	x7, _camlHector__Int@GOTPAGE
	ldr	x7, [x7, _camlHector__Int@GOTPAGEOFF]
	add	x0, x7, #448
	str	x29, [sp, -16]!
	mov	x29, sp
	.cfi_remember_state
	.cfi_def_cfa_register 29
	ldr	x16, [x28, 64]
	mov	sp, x16
	bl	_caml_initialize
	mov	sp, x29
	ldr	x29, [sp], 16
	.cfi_restore_state
	adrp	x1, _camlHector__Int.85@GOTPAGE
	ldr	x1, [x1, _camlHector__Int.85@GOTPAGEOFF]
	adrp	x10, _camlHector__Int@GOTPAGE
	ldr	x10, [x10, _camlHector__Int@GOTPAGEOFF]
	add	x0, x10, #456
	str	x29, [sp, -16]!
	mov	x29, sp
	.cfi_remember_state
	.cfi_def_cfa_register 29
	ldr	x16, [x28, 64]
	mov	sp, x16
	bl	_caml_initialize
	mov	sp, x29
	ldr	x29, [sp], 16
	.cfi_restore_state
	orr	x8, xzr, #64
	bl	_caml_allocN
L:	add	x1, x27, #8
	orr	x13, xzr, #7168
	str	x13, [x1, #-8]
	adrp	x14, _camlHector__Int@GOTPAGE
	ldr	x14, [x14, _camlHector__Int@GOTPAGEOFF]
	ldr	x15, [x14, #408]
	str	x15, [x1, #0]
	ldr	x20, [x14, #416]
	str	x20, [x1, #8]
	orr	x21, xzr, #3
	str	x21, [x1, #16]
	ldr	x23, [x14, #432]
	str	x23, [x1, #24]
	ldr	x25, [x14, #440]
	str	x25, [x1, #32]
	ldr	x2, [x14, #448]
	str	x2, [x1, #40]
	ldr	x3, [x14, #456]
	str	x3, [x1, #48]
	add	x0, x14, #248
	str	x29, [sp, -16]!
	mov	x29, sp
	.cfi_remember_state
	.cfi_def_cfa_register 29
	ldr	x16, [x28, 64]
	mov	sp, x16
	bl	_caml_initialize
	mov	sp, x29
	ldr	x29, [sp], 16
	.cfi_restore_state
	adrp	x1, _camlHector__Int.84@GOTPAGE
	ldr	x1, [x1, _camlHector__Int.84@GOTPAGEOFF]
	adrp	x7, _camlHector__Int@GOTPAGE
	ldr	x7, [x7, _camlHector__Int@GOTPAGEOFF]
	add	x0, x7, #224
	str	x29, [sp, -16]!
	mov	x29, sp
	.cfi_remember_state
	.cfi_def_cfa_register 29
	ldr	x16, [x28, 64]
	mov	sp, x16
	bl	_caml_initialize
	mov	sp, x29
	ldr	x29, [sp], 16
	.cfi_restore_state
	orr	x1, xzr, #3
	adrp	x10, _camlHector__Int@GOTPAGE
	ldr	x10, [x10, _camlHector__Int@GOTPAGEOFF]
	add	x0, x10, #256
	str	x29, [sp, -16]!
	mov	x29, sp
	.cfi_remember_state
	.cfi_def_cfa_register 29
	ldr	x16, [x28, 64]
	mov	sp, x16
	bl	_caml_initialize
	mov	sp, x29
	ldr	x29, [sp], 16
	.cfi_restore_state
	adrp	x1, _camlHector__Int.83@GOTPAGE
	ldr	x1, [x1, _camlHector__Int.83@GOTPAGEOFF]
	adrp	x13, _camlHector__Int@GOTPAGE
	ldr	x13, [x13, _camlHector__Int@GOTPAGEOFF]
	add	x0, x13, #264
	str	x29, [sp, -16]!
	mov	x29, sp
	.cfi_remember_state
	.cfi_def_cfa_register 29
	ldr	x16, [x28, 64]
	mov	sp, x16
	bl	_caml_initialize
	mov	sp, x29
	ldr	x29, [sp], 16
	.cfi_restore_state
	adrp	x1, _camlHector__Int.82@GOTPAGE
	ldr	x1, [x1, _camlHector__Int.82@GOTPAGEOFF]
	adrp	x19, _camlHector__Int@GOTPAGE
	ldr	x19, [x19, _camlHector__Int@GOTPAGEOFF]
	add	x0, x19, #272
	str	x29, [sp, -16]!
	mov	x29, sp
	.cfi_remember_state
	.cfi_def_cfa_register 29
	ldr	x16, [x28, 64]
	mov	sp, x16
	bl	_caml_initialize
	mov	sp, x29
	ldr	x29, [sp], 16
	.cfi_restore_state
	adrp	x1, _camlHector__Int.81@GOTPAGE
	ldr	x1, [x1, _camlHector__Int.81@GOTPAGEOFF]
	adrp	x22, _camlHector__Int@GOTPAGE
	ldr	x22, [x22, _camlHector__Int@GOTPAGEOFF]
	add	x0, x22, #280
	str	x29, [sp, -16]!
	mov	x29, sp
	.cfi_remember_state
	.cfi_def_cfa_register 29
	ldr	x16, [x28, 64]
	mov	sp, x16
	bl	_caml_initialize
	mov	sp, x29
	ldr	x29, [sp], 16
	.cfi_restore_state
	adrp	x1, _camlHector__Int.80@GOTPAGE
	ldr	x1, [x1, _camlHector__Int.80@GOTPAGEOFF]
	adrp	x25, _camlHector__Int@GOTPAGE
	ldr	x25, [x25, _camlHector__Int@GOTPAGEOFF]
	add	x0, x25, #288
	str	x29, [sp, -16]!
	mov	x29, sp
	.cfi_remember_state
	.cfi_def_cfa_register 29
	ldr	x16, [x28, 64]
	mov	sp, x16
	bl	_caml_initialize
	mov	sp, x29
	ldr	x29, [sp], 16
	.cfi_restore_state
	adrp	x1, _camlHector__Int.79@GOTPAGE
	ldr	x1, [x1, _camlHector__Int.79@GOTPAGEOFF]
	adrp	x2, _camlHector__Int@GOTPAGE
	ldr	x2, [x2, _camlHector__Int@GOTPAGEOFF]
	add	x0, x2, #296
	str	x29, [sp, -16]!
	mov	x29, sp
	.cfi_remember_state
	.cfi_def_cfa_register 29
	ldr	x16, [x28, 64]
	mov	sp, x16
	bl	_caml_initialize
	mov	sp, x29
	ldr	x29, [sp], 16
	.cfi_restore_state
	adrp	x1, _camlHector__Int.78@GOTPAGE
	ldr	x1, [x1, _camlHector__Int.78@GOTPAGEOFF]
	adrp	x5, _camlHector__Int@GOTPAGE
	ldr	x5, [x5, _camlHector__Int@GOTPAGEOFF]
	add	x0, x5, #304
	str	x29, [sp, -16]!
	mov	x29, sp
	.cfi_remember_state
	.cfi_def_cfa_register 29
	ldr	x16, [x28, 64]
	mov	sp, x16
	bl	_caml_initialize
	mov	sp, x29
	ldr	x29, [sp], 16
	.cfi_restore_state
	adrp	x1, _camlHector__Int.77@GOTPAGE
	ldr	x1, [x1, _camlHector__Int.77@GOTPAGEOFF]
	adrp	x8, _camlHector__Int@GOTPAGE
	ldr	x8, [x8, _camlHector__Int@GOTPAGEOFF]
	add	x0, x8, #16
	str	x29, [sp, -16]!
	mov	x29, sp
	.cfi_remember_state
	.cfi_def_cfa_register 29
	ldr	x16, [x28, 64]
	mov	sp, x16
	bl	_caml_initialize
	mov	sp, x29
	ldr	x29, [sp], 16
	.cfi_restore_state
	adrp	x1, _camlHector__Int.76@GOTPAGE
	ldr	x1, [x1, _camlHector__Int.76@GOTPAGEOFF]
	adrp	x11, _camlHector__Int@GOTPAGE
	ldr	x11, [x11, _camlHector__Int@GOTPAGEOFF]
	add	x0, x11, #312
	str	x29, [sp, -16]!
	mov	x29, sp
	.cfi_remember_state
	.cfi_def_cfa_register 29
	ldr	x16, [x28, 64]
	mov	sp, x16
	bl	_caml_initialize
	mov	sp, x29
	ldr	x29, [sp], 16
	.cfi_restore_state
	adrp	x1, _camlHector__Int.75@GOTPAGE
	ldr	x1, [x1, _camlHector__Int.75@GOTPAGEOFF]
	adrp	x14, _camlHector__Int@GOTPAGE
	ldr	x14, [x14, _camlHector__Int@GOTPAGEOFF]
	add	x0, x14, #32
	str	x29, [sp, -16]!
	mov	x29, sp
	.cfi_remember_state
	.cfi_def_cfa_register 29
	ldr	x16, [x28, 64]
	mov	sp, x16
	bl	_caml_initialize
	mov	sp, x29
	ldr	x29, [sp], 16
	.cfi_restore_state
	adrp	x1, _camlHector__Int.74@GOTPAGE
	ldr	x1, [x1, _camlHector__Int.74@GOTPAGEOFF]
	adrp	x0, _camlHector__Int@GOTPAGE
	ldr	x0, [x0, _camlHector__Int@GOTPAGEOFF]
	str	x29, [sp, -16]!
	mov	x29, sp
	.cfi_remember_state
	.cfi_def_cfa_register 29
	ldr	x16, [x28, 64]
	mov	sp, x16
	bl	_caml_initialize
	mov	sp, x29
	ldr	x29, [sp], 16
	.cfi_restore_state
	adrp	x1, _camlHector__Int.73@GOTPAGE
	ldr	x1, [x1, _camlHector__Int.73@GOTPAGEOFF]
	adrp	x22, _camlHector__Int@GOTPAGE
	ldr	x22, [x22, _camlHector__Int@GOTPAGEOFF]
	add	x0, x22, #8
	str	x29, [sp, -16]!
	mov	x29, sp
	.cfi_remember_state
	.cfi_def_cfa_register 29
	ldr	x16, [x28, 64]
	mov	sp, x16
	bl	_caml_initialize
	mov	sp, x29
	ldr	x29, [sp], 16
	.cfi_restore_state
	adrp	x1, _camlHector__Int.72@GOTPAGE
	ldr	x1, [x1, _camlHector__Int.72@GOTPAGEOFF]
	adrp	x25, _camlHector__Int@GOTPAGE
	ldr	x25, [x25, _camlHector__Int@GOTPAGEOFF]
	add	x0, x25, #40
	str	x29, [sp, -16]!
	mov	x29, sp
	.cfi_remember_state
	.cfi_def_cfa_register 29
	ldr	x16, [x28, 64]
	mov	sp, x16
	bl	_caml_initialize
	mov	sp, x29
	ldr	x29, [sp], 16
	.cfi_restore_state
	adrp	x1, _camlHector__Int.71@GOTPAGE
	ldr	x1, [x1, _camlHector__Int.71@GOTPAGEOFF]
	adrp	x2, _camlHector__Int@GOTPAGE
	ldr	x2, [x2, _camlHector__Int@GOTPAGEOFF]
	add	x0, x2, #56
	str	x29, [sp, -16]!
	mov	x29, sp
	.cfi_remember_state
	.cfi_def_cfa_register 29
	ldr	x16, [x28, 64]
	mov	sp, x16
	bl	_caml_initialize
	mov	sp, x29
	ldr	x29, [sp], 16
	.cfi_restore_state
	adrp	x1, _camlHector__Int.70@GOTPAGE
	ldr	x1, [x1, _camlHector__Int.70@GOTPAGEOFF]
	adrp	x5, _camlHector__Int@GOTPAGE
	ldr	x5, [x5, _camlHector__Int@GOTPAGEOFF]
	add	x0, x5, #72
	str	x29, [sp, -16]!
	mov	x29, sp
	.cfi_remember_state
	.cfi_def_cfa_register 29
	ldr	x16, [x28, 64]
	mov	sp, x16
	bl	_caml_initialize
	mov	sp, x29
	ldr	x29, [sp], 16
	.cfi_restore_state
	adrp	x1, _camlHector__Int.69@GOTPAGE
	ldr	x1, [x1, _camlHector__Int.69@GOTPAGEOFF]
	adrp	x8, _camlHector__Int@GOTPAGE
	ldr	x8, [x8, _camlHector__Int@GOTPAGEOFF]
	add	x0, x8, #112
	str	x29, [sp, -16]!
	mov	x29, sp
	.cfi_remember_state
	.cfi_def_cfa_register 29
	ldr	x16, [x28, 64]
	mov	sp, x16
	bl	_caml_initialize
	mov	sp, x29
	ldr	x29, [sp], 16
	.cfi_restore_state
	adrp	x10, _camlHector__Int@GOTPAGE
	ldr	x10, [x10, _camlHector__Int@GOTPAGEOFF]
	ldr	x1, [x10, #112]
	add	x0, x10, #120
	str	x29, [sp, -16]!
	mov	x29, sp
	.cfi_remember_state
	.cfi_def_cfa_register 29
	ldr	x16, [x28, 64]
	mov	sp, x16
	bl	_caml_initialize
	mov	sp, x29
	ldr	x29, [sp], 16
	.cfi_restore_state
	adrp	x1, _camlHector__Int.68@GOTPAGE
	ldr	x1, [x1, _camlHector__Int.68@GOTPAGEOFF]
	adrp	x15, _camlHector__Int@GOTPAGE
	ldr	x15, [x15, _camlHector__Int@GOTPAGEOFF]
	add	x0, x15, #96
	str	x29, [sp, -16]!
	mov	x29, sp
	.cfi_remember_state
	.cfi_def_cfa_register 29
	ldr	x16, [x28, 64]
	mov	sp, x16
	bl	_caml_initialize
	mov	sp, x29
	ldr	x29, [sp], 16
	.cfi_restore_state
	adrp	x20, _camlHector__Int@GOTPAGE
	ldr	x20, [x20, _camlHector__Int@GOTPAGEOFF]
	ldr	x1, [x20, #96]
	add	x0, x20, #104
	str	x29, [sp, -16]!
	mov	x29, sp
	.cfi_remember_state
	.cfi_def_cfa_register 29
	ldr	x16, [x28, 64]
	mov	sp, x16
	bl	_caml_initialize
	mov	sp, x29
	ldr	x29, [sp], 16
	.cfi_restore_state
	adrp	x1, _camlHector__Int.67@GOTPAGE
	ldr	x1, [x1, _camlHector__Int.67@GOTPAGEOFF]
	adrp	x25, _camlHector__Int@GOTPAGE
	ldr	x25, [x25, _camlHector__Int@GOTPAGEOFF]
	add	x0, x25, #128
	str	x29, [sp, -16]!
	mov	x29, sp
	.cfi_remember_state
	.cfi_def_cfa_register 29
	ldr	x16, [x28, 64]
	mov	sp, x16
	bl	_caml_initialize
	mov	sp, x29
	ldr	x29, [sp], 16
	.cfi_restore_state
	adrp	x2, _camlHector__Int@GOTPAGE
	ldr	x2, [x2, _camlHector__Int@GOTPAGEOFF]
	ldr	x1, [x2, #128]
	add	x0, x2, #136
	str	x29, [sp, -16]!
	mov	x29, sp
	.cfi_remember_state
	.cfi_def_cfa_register 29
	ldr	x16, [x28, 64]
	mov	sp, x16
	bl	_caml_initialize
	mov	sp, x29
	ldr	x29, [sp], 16
	.cfi_restore_state
	adrp	x1, _camlHector__Int.66@GOTPAGE
	ldr	x1, [x1, _camlHector__Int.66@GOTPAGEOFF]
	adrp	x6, _camlHector__Int@GOTPAGE
	ldr	x6, [x6, _camlHector__Int@GOTPAGEOFF]
	add	x0, x6, #320
	str	x29, [sp, -16]!
	mov	x29, sp
	.cfi_remember_state
	.cfi_def_cfa_register 29
	ldr	x16, [x28, 64]
	mov	sp, x16
	bl	_caml_initialize
	mov	sp, x29
	ldr	x29, [sp], 16
	.cfi_restore_state
	adrp	x1, _camlHector__Int.65@GOTPAGE
	ldr	x1, [x1, _camlHector__Int.65@GOTPAGEOFF]
	adrp	x9, _camlHector__Int@GOTPAGE
	ldr	x9, [x9, _camlHector__Int@GOTPAGEOFF]
	add	x0, x9, #152
	str	x29, [sp, -16]!
	mov	x29, sp
	.cfi_remember_state
	.cfi_def_cfa_register 29
	ldr	x16, [x28, 64]
	mov	sp, x16
	bl	_caml_initialize
	mov	sp, x29
	ldr	x29, [sp], 16
	.cfi_restore_state
	adrp	x1, _camlHector__Int.64@GOTPAGE
	ldr	x1, [x1, _camlHector__Int.64@GOTPAGEOFF]
	adrp	x12, _camlHector__Int@GOTPAGE
	ldr	x12, [x12, _camlHector__Int@GOTPAGEOFF]
	add	x0, x12, #160
	str	x29, [sp, -16]!
	mov	x29, sp
	.cfi_remember_state
	.cfi_def_cfa_register 29
	ldr	x16, [x28, 64]
	mov	sp, x16
	bl	_caml_initialize
	mov	sp, x29
	ldr	x29, [sp], 16
	.cfi_restore_state
	adrp	x1, _camlHector__Int.63@GOTPAGE
	ldr	x1, [x1, _camlHector__Int.63@GOTPAGEOFF]
	adrp	x15, _camlHector__Int@GOTPAGE
	ldr	x15, [x15, _camlHector__Int@GOTPAGEOFF]
	add	x0, x15, #328
	str	x29, [sp, -16]!
	mov	x29, sp
	.cfi_remember_state
	.cfi_def_cfa_register 29
	ldr	x16, [x28, 64]
	mov	sp, x16
	bl	_caml_initialize
	mov	sp, x29
	ldr	x29, [sp], 16
	.cfi_restore_state
	adrp	x1, _camlHector__Int.62@GOTPAGE
	ldr	x1, [x1, _camlHector__Int.62@GOTPAGEOFF]
	adrp	x21, _camlHector__Int@GOTPAGE
	ldr	x21, [x21, _camlHector__Int@GOTPAGEOFF]
	add	x0, x21, #336
	str	x29, [sp, -16]!
	mov	x29, sp
	.cfi_remember_state
	.cfi_def_cfa_register 29
	ldr	x16, [x28, 64]
	mov	sp, x16
	bl	_caml_initialize
	mov	sp, x29
	ldr	x29, [sp], 16
	.cfi_restore_state
	adrp	x1, _camlHector__Int.61@GOTPAGE
	ldr	x1, [x1, _camlHector__Int.61@GOTPAGEOFF]
	adrp	x24, _camlHector__Int@GOTPAGE
	ldr	x24, [x24, _camlHector__Int@GOTPAGEOFF]
	add	x0, x24, #344
	str	x29, [sp, -16]!
	mov	x29, sp
	.cfi_remember_state
	.cfi_def_cfa_register 29
	ldr	x16, [x28, 64]
	mov	sp, x16
	bl	_caml_initialize
	mov	sp, x29
	ldr	x29, [sp], 16
	.cfi_restore_state
	adrp	x1, _camlHector__Int.60@GOTPAGE
	ldr	x1, [x1, _camlHector__Int.60@GOTPAGEOFF]
	adrp	x2, _camlHector__Int@GOTPAGE
	ldr	x2, [x2, _camlHector__Int@GOTPAGEOFF]
	add	x0, x2, #352
	str	x29, [sp, -16]!
	mov	x29, sp
	.cfi_remember_state
	.cfi_def_cfa_register 29
	ldr	x16, [x28, 64]
	mov	sp, x16
	bl	_caml_initialize
	mov	sp, x29
	ldr	x29, [sp], 16
	.cfi_restore_state
	adrp	x1, _camlHector__Int.59@GOTPAGE
	ldr	x1, [x1, _camlHector__Int.59@GOTPAGEOFF]
	adrp	x4, _camlHector__Int@GOTPAGE
	ldr	x4, [x4, _camlHector__Int@GOTPAGEOFF]
	add	x0, x4, #360
	str	x29, [sp, -16]!
	mov	x29, sp
	.cfi_remember_state
	.cfi_def_cfa_register 29
	ldr	x16, [x28, 64]
	mov	sp, x16
	bl	_caml_initialize
	mov	sp, x29
	ldr	x29, [sp], 16
	.cfi_restore_state
	adrp	x1, _camlHector__Int.58@GOTPAGE
	ldr	x1, [x1, _camlHector__Int.58@GOTPAGEOFF]
	adrp	x7, _camlHector__Int@GOTPAGE
	ldr	x7, [x7, _camlHector__Int@GOTPAGEOFF]
	add	x0, x7, #368
	str	x29, [sp, -16]!
	mov	x29, sp
	.cfi_remember_state
	.cfi_def_cfa_register 29
	ldr	x16, [x28, 64]
	mov	sp, x16
	bl	_caml_initialize
	mov	sp, x29
	ldr	x29, [sp], 16
	.cfi_restore_state
	adrp	x1, _camlHector__Int.57@GOTPAGE
	ldr	x1, [x1, _camlHector__Int.57@GOTPAGEOFF]
	adrp	x10, _camlHector__Int@GOTPAGE
	ldr	x10, [x10, _camlHector__Int@GOTPAGEOFF]
	add	x0, x10, #376
	str	x29, [sp, -16]!
	mov	x29, sp
	.cfi_remember_state
	.cfi_def_cfa_register 29
	ldr	x16, [x28, 64]
	mov	sp, x16
	bl	_caml_initialize
	mov	sp, x29
	ldr	x29, [sp], 16
	.cfi_restore_state
	adrp	x1, _camlHector__Int.56@GOTPAGE
	ldr	x1, [x1, _camlHector__Int.56@GOTPAGEOFF]
	adrp	x13, _camlHector__Int@GOTPAGE
	ldr	x13, [x13, _camlHector__Int@GOTPAGEOFF]
	add	x0, x13, #184
	str	x29, [sp, -16]!
	mov	x29, sp
	.cfi_remember_state
	.cfi_def_cfa_register 29
	ldr	x16, [x28, 64]
	mov	sp, x16
	bl	_caml_initialize
	mov	sp, x29
	ldr	x29, [sp], 16
	.cfi_restore_state
	adrp	x1, _camlHector__Int.55@GOTPAGE
	ldr	x1, [x1, _camlHector__Int.55@GOTPAGEOFF]
	adrp	x19, _camlHector__Int@GOTPAGE
	ldr	x19, [x19, _camlHector__Int@GOTPAGEOFF]
	add	x0, x19, #384
	str	x29, [sp, -16]!
	mov	x29, sp
	.cfi_remember_state
	.cfi_def_cfa_register 29
	ldr	x16, [x28, 64]
	mov	sp, x16
	bl	_caml_initialize
	mov	sp, x29
	ldr	x29, [sp], 16
	.cfi_restore_state
	adrp	x1, _camlHector__Int.54@GOTPAGE
	ldr	x1, [x1, _camlHector__Int.54@GOTPAGEOFF]
	adrp	x22, _camlHector__Int@GOTPAGE
	ldr	x22, [x22, _camlHector__Int@GOTPAGEOFF]
	add	x0, x22, #80
	str	x29, [sp, -16]!
	mov	x29, sp
	.cfi_remember_state
	.cfi_def_cfa_register 29
	ldr	x16, [x28, 64]
	mov	sp, x16
	bl	_caml_initialize
	mov	sp, x29
	ldr	x29, [sp], 16
	.cfi_restore_state
	adrp	x24, _camlHector__Int@GOTPAGE
	ldr	x24, [x24, _camlHector__Int@GOTPAGEOFF]
	ldr	x1, [x24, #80]
	add	x0, x24, #88
	str	x29, [sp, -16]!
	mov	x29, sp
	.cfi_remember_state
	.cfi_def_cfa_register 29
	ldr	x16, [x28, 64]
	mov	sp, x16
	bl	_caml_initialize
	mov	sp, x29
	ldr	x29, [sp], 16
	.cfi_restore_state
	adrp	x1, _camlHector__Int.53@GOTPAGE
	ldr	x1, [x1, _camlHector__Int.53@GOTPAGEOFF]
	adrp	x3, _camlHector__Int@GOTPAGE
	ldr	x3, [x3, _camlHector__Int@GOTPAGEOFF]
	add	x0, x3, #200
	str	x29, [sp, -16]!
	mov	x29, sp
	.cfi_remember_state
	.cfi_def_cfa_register 29
	ldr	x16, [x28, 64]
	mov	sp, x16
	bl	_caml_initialize
	mov	sp, x29
	ldr	x29, [sp], 16
	.cfi_restore_state
	adrp	x1, _camlHector__Int.52@GOTPAGE
	ldr	x1, [x1, _camlHector__Int.52@GOTPAGEOFF]
	adrp	x6, _camlHector__Int@GOTPAGE
	ldr	x6, [x6, _camlHector__Int@GOTPAGEOFF]
	add	x0, x6, #392
	str	x29, [sp, -16]!
	mov	x29, sp
	.cfi_remember_state
	.cfi_def_cfa_register 29
	ldr	x16, [x28, 64]
	mov	sp, x16
	bl	_caml_initialize
	mov	sp, x29
	ldr	x29, [sp], 16
	.cfi_restore_state
	adrp	x1, _camlHector__Int.51@GOTPAGE
	ldr	x1, [x1, _camlHector__Int.51@GOTPAGEOFF]
	adrp	x9, _camlHector__Int@GOTPAGE
	ldr	x9, [x9, _camlHector__Int@GOTPAGEOFF]
	add	x0, x9, #208
	str	x29, [sp, -16]!
	mov	x29, sp
	.cfi_remember_state
	.cfi_def_cfa_register 29
	ldr	x16, [x28, 64]
	mov	sp, x16
	bl	_caml_initialize
	mov	sp, x29
	ldr	x29, [sp], 16
	.cfi_restore_state
	adrp	x1, _camlHector__Int.50@GOTPAGE
	ldr	x1, [x1, _camlHector__Int.50@GOTPAGEOFF]
	adrp	x12, _camlHector__Int@GOTPAGE
	ldr	x12, [x12, _camlHector__Int@GOTPAGEOFF]
	add	x0, x12, #216
	str	x29, [sp, -16]!
	mov	x29, sp
	.cfi_remember_state
	.cfi_def_cfa_register 29
	ldr	x16, [x28, 64]
	mov	sp, x16
	bl	_caml_initialize
	mov	sp, x29
	ldr	x29, [sp], 16
	.cfi_restore_state
	adrp	x1, _camlHector__Int.49@GOTPAGE
	ldr	x1, [x1, _camlHector__Int.49@GOTPAGEOFF]
	adrp	x15, _camlHector__Int@GOTPAGE
	ldr	x15, [x15, _camlHector__Int@GOTPAGEOFF]
	add	x0, x15, #24
	str	x29, [sp, -16]!
	mov	x29, sp
	.cfi_remember_state
	.cfi_def_cfa_register 29
	ldr	x16, [x28, 64]
	mov	sp, x16
	bl	_caml_initialize
	mov	sp, x29
	ldr	x29, [sp], 16
	.cfi_restore_state
	adrp	x1, _camlHector__Int.48@GOTPAGE
	ldr	x1, [x1, _camlHector__Int.48@GOTPAGEOFF]
	adrp	x21, _camlHector__Int@GOTPAGE
	ldr	x21, [x21, _camlHector__Int@GOTPAGEOFF]
	add	x0, x21, #48
	str	x29, [sp, -16]!
	mov	x29, sp
	.cfi_remember_state
	.cfi_def_cfa_register 29
	ldr	x16, [x28, 64]
	mov	sp, x16
	bl	_caml_initialize
	mov	sp, x29
	ldr	x29, [sp], 16
	.cfi_restore_state
	adrp	x1, _camlHector__Int.47@GOTPAGE
	ldr	x1, [x1, _camlHector__Int.47@GOTPAGEOFF]
	adrp	x24, _camlHector__Int@GOTPAGE
	ldr	x24, [x24, _camlHector__Int@GOTPAGEOFF]
	add	x0, x24, #64
	str	x29, [sp, -16]!
	mov	x29, sp
	.cfi_remember_state
	.cfi_def_cfa_register 29
	ldr	x16, [x28, 64]
	mov	sp, x16
	bl	_caml_initialize
	mov	sp, x29
	ldr	x29, [sp], 16
	.cfi_restore_state
	adrp	x1, _camlHector__Int.46@GOTPAGE
	ldr	x1, [x1, _camlHector__Int.46@GOTPAGEOFF]
	adrp	x2, _camlHector__Int@GOTPAGE
	ldr	x2, [x2, _camlHector__Int@GOTPAGEOFF]
	add	x0, x2, #144
	str	x29, [sp, -16]!
	mov	x29, sp
	.cfi_remember_state
	.cfi_def_cfa_register 29
	ldr	x16, [x28, 64]
	mov	sp, x16
	bl	_caml_initialize
	mov	sp, x29
	ldr	x29, [sp], 16
	.cfi_restore_state
	adrp	x1, _camlHector__Int.45@GOTPAGE
	ldr	x1, [x1, _camlHector__Int.45@GOTPAGEOFF]
	adrp	x4, _camlHector__Int@GOTPAGE
	ldr	x4, [x4, _camlHector__Int@GOTPAGEOFF]
	add	x0, x4, #192
	str	x29, [sp, -16]!
	mov	x29, sp
	.cfi_remember_state
	.cfi_def_cfa_register 29
	ldr	x16, [x28, 64]
	mov	sp, x16
	bl	_caml_initialize
	mov	sp, x29
	ldr	x29, [sp], 16
	.cfi_restore_state
	adrp	x1, _camlHector__Int.44@GOTPAGE
	ldr	x1, [x1, _camlHector__Int.44@GOTPAGEOFF]
	adrp	x7, _camlHector__Int@GOTPAGE
	ldr	x7, [x7, _camlHector__Int@GOTPAGEOFF]
	add	x0, x7, #168
	str	x29, [sp, -16]!
	mov	x29, sp
	.cfi_remember_state
	.cfi_def_cfa_register 29
	ldr	x16, [x28, 64]
	mov	sp, x16
	bl	_caml_initialize
	mov	sp, x29
	ldr	x29, [sp], 16
	.cfi_restore_state
	adrp	x1, _camlHector__Int.43@GOTPAGE
	ldr	x1, [x1, _camlHector__Int.43@GOTPAGEOFF]
	adrp	x10, _camlHector__Int@GOTPAGE
	ldr	x10, [x10, _camlHector__Int@GOTPAGEOFF]
	add	x0, x10, #176
	str	x29, [sp, -16]!
	mov	x29, sp
	.cfi_remember_state
	.cfi_def_cfa_register 29
	ldr	x16, [x28, 64]
	mov	sp, x16
	bl	_caml_initialize
	mov	sp, x29
	ldr	x29, [sp], 16
	.cfi_restore_state
	orr	x0, xzr, #1
	ldr	x30, [sp, #8]
	add	sp, sp, #16
	.cfi_adjust_cfa_offset	-16
	ret
	.cfi_adjust_cfa_offset	16
	.cfi_endproc
	.data
	.align	3
	.quad	_caml_fill_bytes
	.text
	.globl	_camlHector__Int.code_end
_camlHector__Int.code_end:
	.data
	.quad	0
	.globl	_camlHector__Int.data_end
_camlHector__Int.data_end:
	.quad	0
	.align	3
	.globl	_camlHector__Int.frametable
_camlHector__Int.frametable:
	.quad	87
	.quad	L
	.byte	1
	.byte	6
	.align	2
	.align	3
	.quad	L
	.byte	1
	.byte	0
	.align	2
	.align	3
	.quad	L
	.byte	0
	.align	3
	.quad	L
	.byte	1
	.byte	0
	.align	2
	.align	3
	.quad	L
	.align	2
	.align	3
	.quad	L
	.align	2
	.align	3
	.quad	L
	.byte	0
	.align	3
	.quad	L
	.align	2
	.align	3
	.quad	L
	.align	2
	.align	3
	.quad	L
	.align	2
	.align	3
	.quad	L
	.byte	0
	.align	3
	.quad	L
	.byte	0
	.align	3
	.quad	L
	.align	2
	.align	3
	.quad	L
	.align	2
	.align	3
	.quad	L
	.align	2
	.align	3
	.quad	L
	.align	2
	.align	3
	.quad	L
	.align	2
	.align	3
	.quad	L
	.align	2
	.align	3
	.quad	L
	.align	2
	.align	3
	.quad	L
	.align	2
	.align	3
	.quad	L
	.align	2
	.align	3
	.quad	L
	.align	2
	.align	3
	.quad	L
	.align	2
	.align	3
	.quad	L
	.align	2
	.align	3
	.quad	L
	.align	2
	.align	3
	.quad	L
	.align	2
	.align	3
	.quad	L
	.align	2
	.align	3
	.quad	L
	.align	2
	.align	3
	.quad	L
	.align	2
	.align	3
	.quad	L
	.align	2
	.align	3
	.quad	L
	.byte	1
	.byte	2
	.align	2
	.align	3
	.quad	L
	.align	2
	.align	3
	.quad	L
	.align	2
	.align	3
	.quad	L
	.align	2
	.align	3
	.quad	L
	.align	2
	.align	3
	.quad	L
	.align	2
	.align	3
	.quad	L
	.align	2
	.align	3
	.quad	L
	.byte	0
	.align	3
	.quad	L
	.align	2
	.align	3
	.quad	L
	.align	2
	.align	3
	.quad	L
	.byte	2
	.byte	5
	.byte	0
	.align	2
	.align	3
	.quad	L
	.align	2
	.align	3
	.quad	L
	.align	2
	.align	3
	.quad	L
	.align	2
	.align	3
	.quad	L
	.align	2
	.align	3
	.quad	L
	.byte	1
	.byte	0
	.align	2
	.align	3
	.quad	L
	.align	2
	.align	3
	.quad	L
	.byte	0
	.align	3
	.quad	L
	.byte	0
	.align	3
	.quad	L
	.align	2
	.align	3
	.quad	L
	.align	2
	.align	3
	.quad	L
	.align	2
	.align	3
	.quad	L
	.align	2
	.align	3
	.quad	L
	.align	2
	.align	3
	.quad	L
	.align	2
	.align	3
	.quad	L
	.align	2
	.align	3
	.quad	L
	.align	2
	.align	3
	.quad	L
	.align	2
	.align	3
	.quad	L
	.align	2
	.align	3
	.quad	L
	.align	2
	.align	3
	.quad	L
	.align	2
	.align	3
	.quad	L
	.align	2
	.align	3
	.quad	L
	.align	2
	.align	3
	.quad	L
	.align	2
	.align	3
	.quad	L
	.byte	0
	.align	3
	.quad	L
	.byte	1
	.byte	0
	.align	2
	.align	3
	.quad	L
	.align	2
	.align	3
	.quad	L
	.align	2
	.align	3
	.quad	L
	.align	2
	.align	3
	.quad	L
	.align	2
	.align	3
	.quad	L
	.align	2
	.align	3
	.quad	L
	.byte	1
	.byte	0
	.align	2
	.align	3
	.quad	L
	.align	2
	.align	3
	.quad	L
	.byte	0
	.align	3
	.quad	L
	.byte	1
	.byte	2
	.align	2
	.align	3
	.quad	L
	.align	2
	.align	3
	.quad	L
	.byte	1
	.byte	2
	.align	2
	.align	3
	.quad	L
	.align	2
	.align	3
	.quad	L
	.byte	1
	.byte	2
	.align	2
	.align	3
	.quad	L
	.align	2
	.align	3
	.quad	L
	.byte	0
	.align	3
	.quad	L
	.align	2
	.align	3
	.quad	L
	.byte	0
	.align	3
	.quad	L
	.align	2
	.align	3
	.quad	L
	.byte	0
	.align	3
	.quad	L
	.align	2
	.align	3
	.quad	L
	.byte	0
	.align	3
	.align	2
L:
	.align	2
L:
	.align	2
L:
	.align	2
L:
	.align	2
L:
	.align	2
L:
	.align	2
L:
	.align	2
L:
	.align	2
L:
	.align	2
L:
	.align	2
L:
	.align	2
L:
	.align	2
L:
	.align	2
L:
	.align	2
L:
	.align	2
L:
	.align	2
L:
	.align	2
L:
	.align	2
L:
	.align	2
L:
	.align	2
L:
	.align	2
L:
	.align	2
L:
	.align	2
L:
	.align	2
L:
	.align	2
L:
	.align	2
L:
	.align	2
L:
	.align	2
L:
	.align	2
L:
	.align	2
L:
	.align	2
L:
	.align	2
L:
	.align	2
L:
	.align	2
L:
	.align	2
L:
	.align	2
L:
	.align	2
L:
	.align	2
L:
	.align	2
L:
	.align	2
L:
	.align	2
L:
	.align	2
L:
	.align	2
L:
	.align	2
L:
	.align	2
L:
	.align	2
L:
	.align	2
L:
	.align	2
L:
	.align	2
L:
	.align	2
L:
	.align	2
L:
	.align	2
L:
	.align	2
L:
	.align	2
L:
	.align	2
L:
	.align	2
L:
	.align	2
L:
	.align	2
L:
	.align	2
L:
	.align	2
L:
	.align	2
L:
	.align	2
L:
	.align	2
L:
	.align	2
L:
	.align	2
L:
	.align	2
L:
	.align	2
L:
	.align	2
L:
	.align	2
L:
	.align	2
L:
	.align	2
L:
	.align	2
L:
	.align	2
L:
	.align	2
L:
L:
L:
L:
	.align	2
L:
	.align	2
L:
	.align	2
L:
	.align	2
L:
	.align	2
L:
	.align	2
L:
	.align	2
L:
	.align	2
L:
	.align	2
L:
	.align	2
L:
	.align	2
L:
	.align	2
L:
	.align	2
L:
	.align	2
L:
	.align	2
L:
	.align	2
L:
	.align	2
L:
	.align	2
L:
	.align	2
L:
	.align	2
L:
	.align	2
L:
	.align	2
L:
	.align	2
L:
	.align	2
L:
	.align	2
L:
	.align	2
L:
	.align	2
L:
	.align	2
L:
	.align	2
L:
	.align	2
L:
	.align	2
L:
	.align	2
L:
	.align	2
L:
	.align	2
L:
	.align	2
L:
	.align	2
L:
	.align	3
